
test-out.o:     file format elf64-x86-64


Disassembly of section .text:

0000000000000000 <aot_func#0>:
       0:	c3                   	ret
       1:	66 66 66 66 66 66 2e 	data16 data16 data16 data16 data16 cs nopw 0x0(%rax,%rax,1)
       8:	0f 1f 84 00 00 00 00 
       f:	00 

0000000000000010 <aot_func#1>:
      10:	55                   	push   %rbp
      11:	41 57                	push   %r15
      13:	41 56                	push   %r14
      15:	53                   	push   %rbx
      16:	50                   	push   %rax
      17:	4c 8b 77 10          	mov    0x10(%rdi),%r14
      1b:	b8 80 0e 00 00       	mov    $0xe80,%eax
      20:	41 03 86 d4 01 00 00 	add    0x1d4(%r14),%eax
      27:	49 8b 8e 78 01 00 00 	mov    0x178(%r14),%rcx
      2e:	83 3c 01 00          	cmpl   $0x0,(%rcx,%rax,1)
      32:	75 44                	jne    78 <aot_func#1+0x68>
      34:	48 89 fb             	mov    %rdi,%rbx
      37:	c7 04 01 01 00 00 00 	movl   $0x1,(%rcx,%rax,1)
      3e:	e8 00 00 00 00       	call   43 <aot_func#1+0x33>
      43:	89 c5                	mov    %eax,%ebp
      45:	48 89 df             	mov    %rbx,%rdi
      48:	e8 00 00 00 00       	call   4d <aot_func#1+0x3d>
      4d:	85 ed                	test   %ebp,%ebp
      4f:	74 3b                	je     8c <aot_func#1+0x7c>
      51:	4c 8b 7b 10          	mov    0x10(%rbx),%r15
      55:	49 8b 47 28          	mov    0x28(%r15),%rax
      59:	48 89 df             	mov    %rbx,%rdi
      5c:	89 ee                	mov    %ebp,%esi
      5e:	ff 50 30             	call   *0x30(%rax)
      61:	31 c0                	xor    %eax,%eax
      63:	41 80 7f 68 00       	cmpb   $0x0,0x68(%r15)
      68:	be 21 00 00 00       	mov    $0x21,%esi
      6d:	0f 44 f0             	cmove  %eax,%esi
      70:	4c 89 ff             	mov    %r15,%rdi
      73:	e8 00 00 00 00       	call   78 <aot_func#1+0x68>
      78:	4c 89 f7             	mov    %r14,%rdi
      7b:	31 f6                	xor    %esi,%esi
      7d:	48 83 c4 08          	add    $0x8,%rsp
      81:	5b                   	pop    %rbx
      82:	41 5e                	pop    %r14
      84:	41 5f                	pop    %r15
      86:	5d                   	pop    %rbp
      87:	e9 00 00 00 00       	jmp    8c <aot_func#1+0x7c>
      8c:	48 83 c4 08          	add    $0x8,%rsp
      90:	5b                   	pop    %rbx
      91:	41 5e                	pop    %r14
      93:	41 5f                	pop    %r15
      95:	5d                   	pop    %rbp
      96:	c3                   	ret
      97:	66 0f 1f 84 00 00 00 	nopw   0x0(%rax,%rax,1)
      9e:	00 00 

00000000000000a0 <aot_func#2>:
      a0:	55                   	push   %rbp
      a1:	41 57                	push   %r15
      a3:	41 56                	push   %r14
      a5:	41 55                	push   %r13
      a7:	41 54                	push   %r12
      a9:	53                   	push   %rbx
      aa:	48 83 ec 18          	sub    $0x18,%rsp
      ae:	49 89 fe             	mov    %rdi,%r14
      b1:	4c 8b 67 10          	mov    0x10(%rdi),%r12
      b5:	45 8b bc 24 d0 01 00 	mov    0x1d0(%r12),%r15d
      bc:	00 
      bd:	41 8d 5f e0          	lea    -0x20(%r15),%ebx
      c1:	41 89 9c 24 d0 01 00 	mov    %ebx,0x1d0(%r12)
      c8:	00 
      c9:	4c 8b 6f 10          	mov    0x10(%rdi),%r13
      cd:	49 8b 85 78 01 00 00 	mov    0x178(%r13),%rax
      d4:	bd fb ff ff ff       	mov    $0xfffffffb,%ebp
      d9:	0f 1f 80 00 00 00 00 	nopl   0x0(%rax)
      e0:	8d 8d 55 04 00 00    	lea    0x455(%rbp),%ecx
      e6:	8b 0c 08             	mov    (%rax,%rcx,1),%ecx
      e9:	ba 00 01 01 01       	mov    $0x1010100,%edx
      ee:	29 ca                	sub    %ecx,%edx
      f0:	09 ca                	or     %ecx,%edx
      f2:	f7 d2                	not    %edx
      f4:	83 c5 04             	add    $0x4,%ebp
      f7:	f7 c2 80 80 80 80    	test   $0x80808080,%edx
      fd:	74 e1                	je     e0 <aot_func#2+0x40>
      ff:	90                   	nop
     100:	8d 8d 51 04 00 00    	lea    0x451(%rbp),%ecx
     106:	ff c5                	inc    %ebp
     108:	80 3c 08 00          	cmpb   $0x0,(%rax,%rcx,1)
     10c:	75 f2                	jne    100 <aot_func#2+0x60>
     10e:	4c 89 f7             	mov    %r14,%rdi
     111:	be 50 04 00 00       	mov    $0x450,%esi
     116:	ba 01 00 00 00       	mov    $0x1,%edx
     11b:	89 e9                	mov    %ebp,%ecx
     11d:	41 b8 90 0d 00 00    	mov    $0xd90,%r8d
     123:	e8 00 00 00 00       	call   128 <aot_func#2+0x88>
     128:	39 e8                	cmp    %ebp,%eax
     12a:	75 46                	jne    172 <aot_func#2+0xd2>
     12c:	49 8b 85 78 01 00 00 	mov    0x178(%r13),%rax
     133:	83 b8 d0 0d 00 00 0a 	cmpl   $0xa,0xdd0(%rax)
     13a:	74 0e                	je     14a <aot_func#2+0xaa>
     13c:	8b 88 a4 0d 00 00    	mov    0xda4(%rax),%ecx
     142:	3b 88 a0 0d 00 00    	cmp    0xda0(%rax),%ecx
     148:	75 14                	jne    15e <aot_func#2+0xbe>
     14a:	4c 89 f7             	mov    %r14,%rdi
     14d:	be 90 0d 00 00       	mov    $0xd90,%esi
     152:	ba 0a 00 00 00       	mov    $0xa,%edx
     157:	e8 00 00 00 00       	call   15c <aot_func#2+0xbc>
     15c:	eb 14                	jmp    172 <aot_func#2+0xd2>
     15e:	8d 51 01             	lea    0x1(%rcx),%edx
     161:	89 90 a4 0d 00 00    	mov    %edx,0xda4(%rax)
     167:	49 8b 85 78 01 00 00 	mov    0x178(%r13),%rax
     16e:	c6 04 08 0a          	movb   $0xa,(%rax,%rcx,1)
     172:	4c 89 f7             	mov    %r14,%rdi
     175:	be 00 04 00 00       	mov    $0x400,%esi
     17a:	e8 00 00 00 00       	call   17f <aot_func#2+0xdf>
     17f:	85 c0                	test   %eax,%eax
     181:	0f 84 e8 00 00 00    	je     26f <aot_func#2+0x1cf>
     187:	89 c5                	mov    %eax,%ebp
     189:	49 8b 84 24 78 01 00 	mov    0x178(%r12),%rax
     190:	00 
     191:	41 89 dd             	mov    %ebx,%r13d
     194:	41 89 6c 05 10       	mov    %ebp,0x10(%r13,%rax,1)
     199:	41 8d 4f f0          	lea    -0x10(%r15),%ecx
     19d:	89 5c 24 0c          	mov    %ebx,0xc(%rsp)
     1a1:	4c 89 e3             	mov    %r12,%rbx
     1a4:	4d 8b 66 10          	mov    0x10(%r14),%r12
     1a8:	4c 89 7c 24 10       	mov    %r15,0x10(%rsp)
     1ad:	45 8b bc 24 d0 01 00 	mov    0x1d0(%r12),%r15d
     1b4:	00 
     1b5:	41 8d 47 f0          	lea    -0x10(%r15),%eax
     1b9:	41 89 84 24 d0 01 00 	mov    %eax,0x1d0(%r12)
     1c0:	00 
     1c1:	49 8b 94 24 78 01 00 	mov    0x178(%r12),%rdx
     1c8:	00 
     1c9:	89 4c 10 0c          	mov    %ecx,0xc(%rax,%rdx,1)
     1cd:	4c 89 f7             	mov    %r14,%rdi
     1d0:	be 90 0d 00 00       	mov    $0xd90,%esi
     1d5:	ba 5d 04 00 00       	mov    $0x45d,%edx
     1da:	e8 00 00 00 00       	call   1df <aot_func#2+0x13f>
     1df:	45 89 bc 24 d0 01 00 	mov    %r15d,0x1d0(%r12)
     1e6:	00 
     1e7:	49 89 dc             	mov    %rbx,%r12
     1ea:	8d 45 04             	lea    0x4(%rbp),%eax
     1ed:	48 8b 8b 78 01 00 00 	mov    0x178(%rbx),%rcx
     1f4:	0f b7 91 6e 04 00 00 	movzwl 0x46e(%rcx),%edx
     1fb:	66 89 14 01          	mov    %dx,(%rcx,%rax,1)
     1ff:	48 8b 83 78 01 00 00 	mov    0x178(%rbx),%rax
     206:	8b 88 6a 04 00 00    	mov    0x46a(%rax),%ecx
     20c:	89 ea                	mov    %ebp,%edx
     20e:	89 0c 10             	mov    %ecx,(%rax,%rdx,1)
     211:	48 8b 83 78 01 00 00 	mov    0x178(%rbx),%rax
     218:	42 89 2c 28          	mov    %ebp,(%rax,%r13,1)
     21c:	49 8b 5e 10          	mov    0x10(%r14),%rbx
     220:	44 8b bb d0 01 00 00 	mov    0x1d0(%rbx),%r15d
     227:	41 8d 47 f0          	lea    -0x10(%r15),%eax
     22b:	89 83 d0 01 00 00    	mov    %eax,0x1d0(%rbx)
     231:	48 8b 93 78 01 00 00 	mov    0x178(%rbx),%rdx
     238:	8b 4c 24 0c          	mov    0xc(%rsp),%ecx
     23c:	89 4c 10 0c          	mov    %ecx,0xc(%rax,%rdx,1)
     240:	4c 89 f7             	mov    %r14,%rdi
     243:	be 90 0d 00 00       	mov    $0xd90,%esi
     248:	ba 1d 04 00 00       	mov    $0x41d,%edx
     24d:	e8 00 00 00 00       	call   252 <aot_func#2+0x1b2>
     252:	44 89 bb d0 01 00 00 	mov    %r15d,0x1d0(%rbx)
     259:	4c 8b 7c 24 10       	mov    0x10(%rsp),%r15
     25e:	4c 89 f7             	mov    %r14,%rdi
     261:	89 ee                	mov    %ebp,%esi
     263:	e8 00 00 00 00       	call   268 <aot_func#2+0x1c8>
     268:	31 db                	xor    %ebx,%ebx
     26a:	e9 da 00 00 00       	jmp    349 <aot_func#2+0x2a9>
     26f:	4d 8b 6e 10          	mov    0x10(%r14),%r13
     273:	49 8b 85 78 01 00 00 	mov    0x178(%r13),%rax
     27a:	80 b8 2d 04 00 00 00 	cmpb   $0x0,0x42d(%rax)
     281:	74 4d                	je     2d0 <aot_func#2+0x230>
     283:	80 b8 2e 04 00 00 00 	cmpb   $0x0,0x42e(%rax)
     28a:	74 48                	je     2d4 <aot_func#2+0x234>
     28c:	80 b8 2f 04 00 00 00 	cmpb   $0x0,0x42f(%rax)
     293:	74 46                	je     2db <aot_func#2+0x23b>
     295:	bd fe ff ff ff       	mov    $0xfffffffe,%ebp
     29a:	66 0f 1f 44 00 00    	nopw   0x0(%rax,%rax,1)
     2a0:	8d 8d 32 04 00 00    	lea    0x432(%rbp),%ecx
     2a6:	8b 0c 08             	mov    (%rax,%rcx,1),%ecx
     2a9:	ba 00 01 01 01       	mov    $0x1010100,%edx
     2ae:	29 ca                	sub    %ecx,%edx
     2b0:	09 ca                	or     %ecx,%edx
     2b2:	f7 d2                	not    %edx
     2b4:	83 c5 04             	add    $0x4,%ebp
     2b7:	f7 c2 80 80 80 80    	test   $0x80808080,%edx
     2bd:	74 e1                	je     2a0 <aot_func#2+0x200>
     2bf:	90                   	nop
     2c0:	8d 8d 2e 04 00 00    	lea    0x42e(%rbp),%ecx
     2c6:	ff c5                	inc    %ebp
     2c8:	80 3c 08 00          	cmpb   $0x0,(%rax,%rcx,1)
     2cc:	75 f2                	jne    2c0 <aot_func#2+0x220>
     2ce:	eb 10                	jmp    2e0 <aot_func#2+0x240>
     2d0:	31 ed                	xor    %ebp,%ebp
     2d2:	eb 0c                	jmp    2e0 <aot_func#2+0x240>
     2d4:	bd 01 00 00 00       	mov    $0x1,%ebp
     2d9:	eb 05                	jmp    2e0 <aot_func#2+0x240>
     2db:	bd 02 00 00 00       	mov    $0x2,%ebp
     2e0:	4c 89 f7             	mov    %r14,%rdi
     2e3:	be 2d 04 00 00       	mov    $0x42d,%esi
     2e8:	ba 01 00 00 00       	mov    $0x1,%edx
     2ed:	89 e9                	mov    %ebp,%ecx
     2ef:	41 b8 90 0d 00 00    	mov    $0xd90,%r8d
     2f5:	e8 00 00 00 00       	call   2fa <aot_func#2+0x25a>
     2fa:	bb ff ff ff ff       	mov    $0xffffffff,%ebx
     2ff:	39 c5                	cmp    %eax,%ebp
     301:	75 46                	jne    349 <aot_func#2+0x2a9>
     303:	49 8b 85 78 01 00 00 	mov    0x178(%r13),%rax
     30a:	83 b8 d0 0d 00 00 0a 	cmpl   $0xa,0xdd0(%rax)
     311:	74 0e                	je     321 <aot_func#2+0x281>
     313:	8b 88 a4 0d 00 00    	mov    0xda4(%rax),%ecx
     319:	3b 88 a0 0d 00 00    	cmp    0xda0(%rax),%ecx
     31f:	75 14                	jne    335 <aot_func#2+0x295>
     321:	4c 89 f7             	mov    %r14,%rdi
     324:	be 90 0d 00 00       	mov    $0xd90,%esi
     329:	ba 0a 00 00 00       	mov    $0xa,%edx
     32e:	e8 00 00 00 00       	call   333 <aot_func#2+0x293>
     333:	eb 14                	jmp    349 <aot_func#2+0x2a9>
     335:	8d 51 01             	lea    0x1(%rcx),%edx
     338:	89 90 a4 0d 00 00    	mov    %edx,0xda4(%rax)
     33e:	49 8b 85 78 01 00 00 	mov    0x178(%r13),%rax
     345:	c6 04 08 0a          	movb   $0xa,(%rax,%rcx,1)
     349:	45 89 bc 24 d0 01 00 	mov    %r15d,0x1d0(%r12)
     350:	00 
     351:	89 d8                	mov    %ebx,%eax
     353:	48 83 c4 18          	add    $0x18,%rsp
     357:	5b                   	pop    %rbx
     358:	41 5c                	pop    %r12
     35a:	41 5d                	pop    %r13
     35c:	41 5e                	pop    %r14
     35e:	41 5f                	pop    %r15
     360:	5d                   	pop    %rbp
     361:	c3                   	ret
     362:	66 66 66 66 66 2e 0f 	data16 data16 data16 data16 cs nopw 0x0(%rax,%rax,1)
     369:	1f 84 00 00 00 00 00 

0000000000000370 <aot_func#3>:
     370:	e9 00 00 00 00       	jmp    375 <aot_func#3+0x5>
     375:	66 66 2e 0f 1f 84 00 	data16 cs nopw 0x0(%rax,%rax,1)
     37c:	00 00 00 00 

0000000000000380 <aot_func#4>:
     380:	55                   	push   %rbp
     381:	41 57                	push   %r15
     383:	41 56                	push   %r14
     385:	41 55                	push   %r13
     387:	41 54                	push   %r12
     389:	53                   	push   %rbx
     38a:	48 83 ec 18          	sub    $0x18,%rsp
     38e:	48 89 fd             	mov    %rdi,%rbp
     391:	4c 8b 7f 10          	mov    0x10(%rdi),%r15
     395:	4d 8d b7 78 01 00 00 	lea    0x178(%r15),%r14
     39c:	45 8b 97 d0 01 00 00 	mov    0x1d0(%r15),%r10d
     3a3:	41 8d 42 f0          	lea    -0x10(%r10),%eax
     3a7:	41 89 87 d0 01 00 00 	mov    %eax,0x1d0(%r15)
     3ae:	49 8b 8f 78 01 00 00 	mov    0x178(%r15),%rcx
     3b5:	44 8b 99 9c 0e 00 00 	mov    0xe9c(%rcx),%r11d
     3bc:	45 85 db             	test   %r11d,%r11d
     3bf:	74 5c                	je     41d <aot_func#4+0x9d>
     3c1:	81 fe ec 00 00 00    	cmp    $0xec,%esi
     3c7:	0f 86 94 04 00 00    	jbe    861 <aot_func#4+0x4e1>
     3cd:	83 fe c0             	cmp    $0xffffffc0,%esi
     3d0:	0f 82 02 05 00 00    	jb     8d8 <aot_func#4+0x558>
     3d6:	4d 8b 06             	mov    (%r14),%r8
     3d9:	41 bc ff ff ff ff    	mov    $0xffffffff,%r12d
     3df:	41 8b b0 8c 0e 00 00 	mov    0xe8c(%r8),%esi
     3e6:	89 f2                	mov    %esi,%edx
     3e8:	44 29 e2             	sub    %r12d,%edx
     3eb:	0f 82 e1 07 00 00    	jb     bd2 <aot_func#4+0x852>
     3f1:	41 8b 80 98 0e 00 00 	mov    0xe98(%r8),%eax
     3f8:	83 fa 10             	cmp    $0x10,%edx
     3fb:	0f 83 54 06 00 00    	jae    a55 <aot_func#4+0x6d5>
     401:	8d 0c 30             	lea    (%rax,%rsi,1),%ecx
     404:	83 ce 03             	or     $0x3,%esi
     407:	42 89 74 00 04       	mov    %esi,0x4(%rax,%r8,1)
     40c:	49 8b 16             	mov    (%r14),%rdx
     40f:	83 4c 11 04 01       	orl    $0x1,0x4(%rcx,%rdx,1)
     414:	31 d2                	xor    %edx,%edx
     416:	31 ff                	xor    %edi,%edi
     418:	e9 5a 06 00 00       	jmp    a77 <aot_func#4+0x6f7>
     41d:	8b 81 5c 10 00 00    	mov    0x105c(%rcx),%eax
     423:	85 c0                	test   %eax,%eax
     425:	75 51                	jne    478 <aot_func#4+0xf8>
     427:	48 c7 81 68 10 00 00 	movq   $0xffffffffffffffff,0x1068(%rcx)
     42e:	ff ff ff ff 
     432:	49 8b 06             	mov    (%r14),%rax
     435:	48 b9 00 00 01 00 00 	movabs $0x1000000010000,%rcx
     43c:	00 01 00 
     43f:	48 89 88 60 10 00 00 	mov    %rcx,0x1060(%rax)
     446:	41 8d 42 f8          	lea    -0x8(%r10),%eax
     44a:	83 e0 f0             	and    $0xfffffff0,%eax
     44d:	35 58 55 55 55       	xor    $0x55555558,%eax
     452:	49 8b 0e             	mov    (%r14),%rcx
     455:	89 81 5c 10 00 00    	mov    %eax,0x105c(%rcx)
     45b:	49 8b 0e             	mov    (%r14),%rcx
     45e:	c7 81 70 10 00 00 00 	movl   $0x0,0x1070(%rcx)
     465:	00 00 00 
     468:	49 8b 0e             	mov    (%r14),%rcx
     46b:	c7 81 40 10 00 00 00 	movl   $0x0,0x1040(%rcx)
     472:	00 00 00 
     475:	49 8b 0e             	mov    (%r14),%rcx
     478:	c7 81 44 10 00 00 b0 	movl   $0x114b0,0x1044(%rcx)
     47f:	14 01 00 
     482:	49 8b 0e             	mov    (%r14),%rcx
     485:	c7 81 94 0e 00 00 b0 	movl   $0x114b0,0xe94(%rcx)
     48c:	14 01 00 
     48f:	49 8b 0e             	mov    (%r14),%rcx
     492:	89 81 a8 0e 00 00    	mov    %eax,0xea8(%rcx)
     498:	49 8b 06             	mov    (%r14),%rax
     49b:	c7 80 a4 0e 00 00 ff 	movl   $0xffffffff,0xea4(%rax)
     4a2:	ff ff ff 
     4a5:	49 8b 06             	mov    (%r14),%rax
     4a8:	c7 80 48 10 00 00 50 	movl   $0xeb50,0x1048(%rax)
     4af:	eb 00 00 
     4b2:	49 8b 06             	mov    (%r14),%rax
     4b5:	c7 80 38 10 00 00 50 	movl   $0xeb50,0x1038(%rax)
     4bc:	eb 00 00 
     4bf:	49 8b 06             	mov    (%r14),%rax
     4c2:	c7 80 34 10 00 00 50 	movl   $0xeb50,0x1034(%rax)
     4c9:	eb 00 00 
     4cc:	49 8b 06             	mov    (%r14),%rax
     4cf:	c7 80 c0 0e 00 00 b4 	movl   $0xeb4,0xec0(%rax)
     4d6:	0e 00 00 
     4d9:	49 8b 06             	mov    (%r14),%rax
     4dc:	c7 80 b4 0e 00 00 ac 	movl   $0xeac,0xeb4(%rax)
     4e3:	0e 00 00 
     4e6:	49 8b 06             	mov    (%r14),%rax
     4e9:	c7 80 b8 0e 00 00 ac 	movl   $0xeac,0xeb8(%rax)
     4f0:	0e 00 00 
     4f3:	49 8b 06             	mov    (%r14),%rax
     4f6:	c7 80 c8 0e 00 00 bc 	movl   $0xebc,0xec8(%rax)
     4fd:	0e 00 00 
     500:	49 8b 06             	mov    (%r14),%rax
     503:	c7 80 bc 0e 00 00 b4 	movl   $0xeb4,0xebc(%rax)
     50a:	0e 00 00 
     50d:	49 8b 06             	mov    (%r14),%rax
     510:	c7 80 d0 0e 00 00 c4 	movl   $0xec4,0xed0(%rax)
     517:	0e 00 00 
     51a:	49 8b 06             	mov    (%r14),%rax
     51d:	c7 80 c4 0e 00 00 bc 	movl   $0xebc,0xec4(%rax)
     524:	0e 00 00 
     527:	49 8b 06             	mov    (%r14),%rax
     52a:	c7 80 cc 0e 00 00 c4 	movl   $0xec4,0xecc(%rax)
     531:	0e 00 00 
     534:	49 8b 06             	mov    (%r14),%rax
     537:	c7 80 e0 0e 00 00 d4 	movl   $0xed4,0xee0(%rax)
     53e:	0e 00 00 
     541:	49 8b 06             	mov    (%r14),%rax
     544:	c7 80 d4 0e 00 00 cc 	movl   $0xecc,0xed4(%rax)
     54b:	0e 00 00 
     54e:	49 8b 06             	mov    (%r14),%rax
     551:	c7 80 d8 0e 00 00 cc 	movl   $0xecc,0xed8(%rax)
     558:	0e 00 00 
     55b:	49 8b 06             	mov    (%r14),%rax
     55e:	c7 80 e8 0e 00 00 dc 	movl   $0xedc,0xee8(%rax)
     565:	0e 00 00 
     568:	49 8b 06             	mov    (%r14),%rax
     56b:	c7 80 dc 0e 00 00 d4 	movl   $0xed4,0xedc(%rax)
     572:	0e 00 00 
     575:	49 8b 06             	mov    (%r14),%rax
     578:	c7 80 f0 0e 00 00 e4 	movl   $0xee4,0xef0(%rax)
     57f:	0e 00 00 
     582:	49 8b 06             	mov    (%r14),%rax
     585:	c7 80 e4 0e 00 00 dc 	movl   $0xedc,0xee4(%rax)
     58c:	0e 00 00 
     58f:	49 8b 06             	mov    (%r14),%rax
     592:	c7 80 ec 0e 00 00 e4 	movl   $0xee4,0xeec(%rax)
     599:	0e 00 00 
     59c:	49 8b 06             	mov    (%r14),%rax
     59f:	c7 80 00 0f 00 00 f4 	movl   $0xef4,0xf00(%rax)
     5a6:	0e 00 00 
     5a9:	49 8b 06             	mov    (%r14),%rax
     5ac:	c7 80 f4 0e 00 00 ec 	movl   $0xeec,0xef4(%rax)
     5b3:	0e 00 00 
     5b6:	49 8b 06             	mov    (%r14),%rax
     5b9:	c7 80 f8 0e 00 00 ec 	movl   $0xeec,0xef8(%rax)
     5c0:	0e 00 00 
     5c3:	49 8b 06             	mov    (%r14),%rax
     5c6:	c7 80 08 0f 00 00 fc 	movl   $0xefc,0xf08(%rax)
     5cd:	0e 00 00 
     5d0:	49 8b 06             	mov    (%r14),%rax
     5d3:	c7 80 fc 0e 00 00 f4 	movl   $0xef4,0xefc(%rax)
     5da:	0e 00 00 
     5dd:	49 8b 06             	mov    (%r14),%rax
     5e0:	c7 80 10 0f 00 00 04 	movl   $0xf04,0xf10(%rax)
     5e7:	0f 00 00 
     5ea:	49 8b 06             	mov    (%r14),%rax
     5ed:	c7 80 04 0f 00 00 fc 	movl   $0xefc,0xf04(%rax)
     5f4:	0e 00 00 
     5f7:	49 8b 06             	mov    (%r14),%rax
     5fa:	c7 80 0c 0f 00 00 04 	movl   $0xf04,0xf0c(%rax)
     601:	0f 00 00 
     604:	49 8b 06             	mov    (%r14),%rax
     607:	c7 80 20 0f 00 00 14 	movl   $0xf14,0xf20(%rax)
     60e:	0f 00 00 
     611:	49 8b 06             	mov    (%r14),%rax
     614:	c7 80 14 0f 00 00 0c 	movl   $0xf0c,0xf14(%rax)
     61b:	0f 00 00 
     61e:	49 8b 06             	mov    (%r14),%rax
     621:	c7 80 18 0f 00 00 0c 	movl   $0xf0c,0xf18(%rax)
     628:	0f 00 00 
     62b:	49 8b 06             	mov    (%r14),%rax
     62e:	c7 80 28 0f 00 00 1c 	movl   $0xf1c,0xf28(%rax)
     635:	0f 00 00 
     638:	49 8b 06             	mov    (%r14),%rax
     63b:	c7 80 1c 0f 00 00 14 	movl   $0xf14,0xf1c(%rax)
     642:	0f 00 00 
     645:	49 8b 06             	mov    (%r14),%rax
     648:	c7 80 30 0f 00 00 24 	movl   $0xf24,0xf30(%rax)
     64f:	0f 00 00 
     652:	49 8b 06             	mov    (%r14),%rax
     655:	c7 80 24 0f 00 00 1c 	movl   $0xf1c,0xf24(%rax)
     65c:	0f 00 00 
     65f:	49 8b 06             	mov    (%r14),%rax
     662:	c7 80 2c 0f 00 00 24 	movl   $0xf24,0xf2c(%rax)
     669:	0f 00 00 
     66c:	49 8b 06             	mov    (%r14),%rax
     66f:	c7 80 40 0f 00 00 34 	movl   $0xf34,0xf40(%rax)
     676:	0f 00 00 
     679:	49 8b 06             	mov    (%r14),%rax
     67c:	c7 80 34 0f 00 00 2c 	movl   $0xf2c,0xf34(%rax)
     683:	0f 00 00 
     686:	49 8b 06             	mov    (%r14),%rax
     689:	c7 80 38 0f 00 00 2c 	movl   $0xf2c,0xf38(%rax)
     690:	0f 00 00 
     693:	49 8b 06             	mov    (%r14),%rax
     696:	c7 80 48 0f 00 00 3c 	movl   $0xf3c,0xf48(%rax)
     69d:	0f 00 00 
     6a0:	49 8b 06             	mov    (%r14),%rax
     6a3:	c7 80 3c 0f 00 00 34 	movl   $0xf34,0xf3c(%rax)
     6aa:	0f 00 00 
     6ad:	49 8b 06             	mov    (%r14),%rax
     6b0:	c7 80 50 0f 00 00 44 	movl   $0xf44,0xf50(%rax)
     6b7:	0f 00 00 
     6ba:	49 8b 06             	mov    (%r14),%rax
     6bd:	c7 80 44 0f 00 00 3c 	movl   $0xf3c,0xf44(%rax)
     6c4:	0f 00 00 
     6c7:	49 8b 06             	mov    (%r14),%rax
     6ca:	c7 80 4c 0f 00 00 44 	movl   $0xf44,0xf4c(%rax)
     6d1:	0f 00 00 
     6d4:	49 8b 06             	mov    (%r14),%rax
     6d7:	c7 80 60 0f 00 00 54 	movl   $0xf54,0xf60(%rax)
     6de:	0f 00 00 
     6e1:	49 8b 06             	mov    (%r14),%rax
     6e4:	c7 80 54 0f 00 00 4c 	movl   $0xf4c,0xf54(%rax)
     6eb:	0f 00 00 
     6ee:	49 8b 06             	mov    (%r14),%rax
     6f1:	c7 80 58 0f 00 00 4c 	movl   $0xf4c,0xf58(%rax)
     6f8:	0f 00 00 
     6fb:	49 8b 06             	mov    (%r14),%rax
     6fe:	c7 80 68 0f 00 00 5c 	movl   $0xf5c,0xf68(%rax)
     705:	0f 00 00 
     708:	49 8b 06             	mov    (%r14),%rax
     70b:	c7 80 5c 0f 00 00 54 	movl   $0xf54,0xf5c(%rax)
     712:	0f 00 00 
     715:	49 8b 06             	mov    (%r14),%rax
     718:	c7 80 70 0f 00 00 64 	movl   $0xf64,0xf70(%rax)
     71f:	0f 00 00 
     722:	49 8b 06             	mov    (%r14),%rax
     725:	c7 80 64 0f 00 00 5c 	movl   $0xf5c,0xf64(%rax)
     72c:	0f 00 00 
     72f:	49 8b 06             	mov    (%r14),%rax
     732:	c7 80 6c 0f 00 00 64 	movl   $0xf64,0xf6c(%rax)
     739:	0f 00 00 
     73c:	49 8b 06             	mov    (%r14),%rax
     73f:	c7 80 80 0f 00 00 74 	movl   $0xf74,0xf80(%rax)
     746:	0f 00 00 
     749:	49 8b 06             	mov    (%r14),%rax
     74c:	c7 80 74 0f 00 00 6c 	movl   $0xf6c,0xf74(%rax)
     753:	0f 00 00 
     756:	49 8b 06             	mov    (%r14),%rax
     759:	c7 80 78 0f 00 00 6c 	movl   $0xf6c,0xf78(%rax)
     760:	0f 00 00 
     763:	49 8b 06             	mov    (%r14),%rax
     766:	c7 80 88 0f 00 00 7c 	movl   $0xf7c,0xf88(%rax)
     76d:	0f 00 00 
     770:	49 8b 06             	mov    (%r14),%rax
     773:	c7 80 7c 0f 00 00 74 	movl   $0xf74,0xf7c(%rax)
     77a:	0f 00 00 
     77d:	49 8b 06             	mov    (%r14),%rax
     780:	c7 80 90 0f 00 00 84 	movl   $0xf84,0xf90(%rax)
     787:	0f 00 00 
     78a:	49 8b 06             	mov    (%r14),%rax
     78d:	c7 80 84 0f 00 00 7c 	movl   $0xf7c,0xf84(%rax)
     794:	0f 00 00 
     797:	49 8b 06             	mov    (%r14),%rax
     79a:	c7 80 8c 0f 00 00 84 	movl   $0xf84,0xf8c(%rax)
     7a1:	0f 00 00 
     7a4:	49 8b 06             	mov    (%r14),%rax
     7a7:	c7 80 a0 0f 00 00 94 	movl   $0xf94,0xfa0(%rax)
     7ae:	0f 00 00 
     7b1:	49 8b 06             	mov    (%r14),%rax
     7b4:	c7 80 94 0f 00 00 8c 	movl   $0xf8c,0xf94(%rax)
     7bb:	0f 00 00 
     7be:	49 8b 06             	mov    (%r14),%rax
     7c1:	c7 80 98 0f 00 00 8c 	movl   $0xf8c,0xf98(%rax)
     7c8:	0f 00 00 
     7cb:	49 8b 06             	mov    (%r14),%rax
     7ce:	c7 80 a8 0f 00 00 9c 	movl   $0xf9c,0xfa8(%rax)
     7d5:	0f 00 00 
     7d8:	49 8b 06             	mov    (%r14),%rax
     7db:	c7 80 9c 0f 00 00 94 	movl   $0xf94,0xf9c(%rax)
     7e2:	0f 00 00 
     7e5:	49 8b 06             	mov    (%r14),%rax
     7e8:	c7 80 b0 0f 00 00 a4 	movl   $0xfa4,0xfb0(%rax)
     7ef:	0f 00 00 
     7f2:	49 8b 06             	mov    (%r14),%rax
     7f5:	c7 80 a4 0f 00 00 9c 	movl   $0xf9c,0xfa4(%rax)
     7fc:	0f 00 00 
     7ff:	49 8b 06             	mov    (%r14),%rax
     802:	c7 80 ac 0f 00 00 a4 	movl   $0xfa4,0xfac(%rax)
     809:	0f 00 00 
     80c:	49 8b 06             	mov    (%r14),%rax
     80f:	c7 80 cc ff 01 00 38 	movl   $0x38,0x1ffcc(%rax)
     816:	00 00 00 
     819:	49 8b 06             	mov    (%r14),%rax
     81c:	8b 88 6c 10 00 00    	mov    0x106c(%rax),%ecx
     822:	89 88 a0 0e 00 00    	mov    %ecx,0xea0(%rax)
     828:	49 8b 06             	mov    (%r14),%rax
     82b:	c7 80 9c 0e 00 00 b8 	movl   $0x114b8,0xe9c(%rax)
     832:	14 01 00 
     835:	49 8b 06             	mov    (%r14),%rax
     838:	c7 80 90 0e 00 00 10 	movl   $0xeb10,0xe90(%rax)
     83f:	eb 00 00 
     842:	49 8b 06             	mov    (%r14),%rax
     845:	c7 80 bc 14 01 00 11 	movl   $0xeb11,0x114bc(%rax)
     84c:	eb 00 00 
     84f:	41 bb b8 14 01 00    	mov    $0x114b8,%r11d
     855:	81 fe ec 00 00 00    	cmp    $0xec,%esi
     85b:	0f 87 6c fb ff ff    	ja     3cd <aot_func#4+0x4d>
     861:	4d 8b 06             	mov    (%r14),%r8
     864:	45 8b a8 84 0e 00 00 	mov    0xe84(%r8),%r13d
     86b:	8d 46 13             	lea    0x13(%rsi),%eax
     86e:	25 f0 01 00 00       	and    $0x1f0,%eax
     873:	83 fe 0b             	cmp    $0xb,%esi
     876:	41 bc 10 00 00 00    	mov    $0x10,%r12d
     87c:	44 0f 43 e0          	cmovae %eax,%r12d
     880:	4c 89 e6             	mov    %r12,%rsi
     883:	48 c1 ee 03          	shr    $0x3,%rsi
     887:	89 f2                	mov    %esi,%edx
     889:	83 e2 1e             	and    $0x1e,%edx
     88c:	c4 c2 eb f7 c5       	shrx   %rdx,%r13,%rax
     891:	a8 03                	test   $0x3,%al
     893:	0f 84 26 01 00 00    	je     9bf <aot_func#4+0x63f>
     899:	83 e0 01             	and    $0x1,%eax
     89c:	89 f7                	mov    %esi,%edi
     89e:	48 09 c7             	or     %rax,%rdi
     8a1:	48 83 f7 01          	xor    $0x1,%rdi
     8a5:	48 8d 14 fd 00 00 00 	lea    0x0(,%rdi,8),%rdx
     8ac:	00 
     8ad:	8d 82 ac 0e 00 00    	lea    0xeac(%rdx),%eax
     8b3:	41 8b b4 f8 b4 0e 00 	mov    0xeb4(%r8,%rdi,8),%esi
     8ba:	00 
     8bb:	42 8b 4c 06 08       	mov    0x8(%rsi,%r8,1),%ecx
     8c0:	39 c8                	cmp    %ecx,%eax
     8c2:	0f 85 61 01 00 00    	jne    a29 <aot_func#4+0x6a9>
     8c8:	41 0f b3 fd          	btr    %edi,%r13d
     8cc:	45 89 a8 84 0e 00 00 	mov    %r13d,0xe84(%r8)
     8d3:	e9 60 01 00 00       	jmp    a38 <aot_func#4+0x6b8>
     8d8:	8d 46 13             	lea    0x13(%rsi),%eax
     8db:	41 89 c4             	mov    %eax,%r12d
     8de:	41 83 e4 f0          	and    $0xfffffff0,%r12d
     8e2:	4d 8b 06             	mov    (%r14),%r8
     8e5:	41 8b 88 88 0e 00 00 	mov    0xe88(%r8),%ecx
     8ec:	85 c9                	test   %ecx,%ecx
     8ee:	0f 84 cc 02 00 00    	je     bc0 <aot_func#4+0x840>
     8f4:	89 4c 24 08          	mov    %ecx,0x8(%rsp)
     8f8:	4c 89 3c 24          	mov    %r15,(%rsp)
     8fc:	41 b9 1f 00 00 00    	mov    $0x1f,%r9d
     902:	81 fe ec ff ff 00    	cmp    $0xffffec,%esi
     908:	77 1e                	ja     928 <aot_func#4+0x5a8>
     90a:	c1 e8 08             	shr    $0x8,%eax
     90d:	f3 0f bd c0          	lzcnt  %eax,%eax
     911:	b9 06 00 00 00       	mov    $0x6,%ecx
     916:	29 c1                	sub    %eax,%ecx
     918:	01 c0                	add    %eax,%eax
     91a:	45 31 c9             	xor    %r9d,%r9d
     91d:	41 0f a3 cc          	bt     %ecx,%r12d
     921:	41 83 d1 3e          	adc    $0x3e,%r9d
     925:	41 29 c1             	sub    %eax,%r9d
     928:	49 89 ed             	mov    %rbp,%r13
     92b:	45 89 e7             	mov    %r12d,%r15d
     92e:	41 f7 df             	neg    %r15d
     931:	42 8d 04 8d b4 0f 00 	lea    0xfb4(,%r9,4),%eax
     938:	00 
     939:	41 8b 34 00          	mov    (%r8,%rax,1),%esi
     93d:	85 f6                	test   %esi,%esi
     93f:	0f 84 4c 01 00 00    	je     a91 <aot_func#4+0x711>
     945:	44 89 c8             	mov    %r9d,%eax
     948:	d0 e8                	shr    $1,%al
     94a:	b1 19                	mov    $0x19,%cl
     94c:	28 c1                	sub    %al,%cl
     94e:	80 e1 1f             	and    $0x1f,%cl
     951:	31 db                	xor    %ebx,%ebx
     953:	41 83 f9 1f          	cmp    $0x1f,%r9d
     957:	0f b6 c1             	movzbl %cl,%eax
     95a:	0f 44 c3             	cmove  %ebx,%eax
     95d:	c4 c2 79 f7 fc       	shlx   %eax,%r12d,%edi
     962:	31 c0                	xor    %eax,%eax
     964:	eb 34                	jmp    99a <aot_func#4+0x61a>
     966:	66 2e 0f 1f 84 00 00 	cs nopw 0x0(%rax,%rax,1)
     96d:	00 00 00 
     970:	42 8b 54 05 14       	mov    0x14(%rbp,%r8,1),%edx
     975:	89 fd                	mov    %edi,%ebp
     977:	c1 ed 1f             	shr    $0x1f,%ebp
     97a:	8d 34 ae             	lea    (%rsi,%rbp,4),%esi
     97d:	83 c6 10             	add    $0x10,%esi
     980:	41 8b 34 30          	mov    (%r8,%rsi,1),%esi
     984:	39 f2                	cmp    %esi,%edx
     986:	89 d1                	mov    %edx,%ecx
     988:	0f 44 cb             	cmove  %ebx,%ecx
     98b:	85 d2                	test   %edx,%edx
     98d:	0f 45 d9             	cmovne %ecx,%ebx
     990:	01 ff                	add    %edi,%edi
     992:	85 f6                	test   %esi,%esi
     994:	0f 84 fb 00 00 00    	je     a95 <aot_func#4+0x715>
     99a:	89 f5                	mov    %esi,%ebp
     99c:	42 8b 4c 05 04       	mov    0x4(%rbp,%r8,1),%ecx
     9a1:	83 e1 f8             	and    $0xfffffff8,%ecx
     9a4:	44 29 e1             	sub    %r12d,%ecx
     9a7:	44 39 f9             	cmp    %r15d,%ecx
     9aa:	73 c4                	jae    970 <aot_func#4+0x5f0>
     9ac:	41 89 cf             	mov    %ecx,%r15d
     9af:	89 f0                	mov    %esi,%eax
     9b1:	85 c9                	test   %ecx,%ecx
     9b3:	75 bb                	jne    970 <aot_func#4+0x5f0>
     9b5:	45 31 ff             	xor    %r15d,%r15d
     9b8:	89 f0                	mov    %esi,%eax
     9ba:	e9 c3 01 00 00       	jmp    b82 <aot_func#4+0x802>
     9bf:	4c 89 14 24          	mov    %r10,(%rsp)
     9c3:	45 8b 90 8c 0e 00 00 	mov    0xe8c(%r8),%r10d
     9ca:	45 39 d4             	cmp    %r10d,%r12d
     9cd:	0f 86 7c 04 00 00    	jbe    e4f <aot_func#4+0xacf>
     9d3:	85 c0                	test   %eax,%eax
     9d5:	0f 84 92 03 00 00    	je     d6d <aot_func#4+0x9ed>
     9db:	c4 e2 69 f7 c0       	shlx   %edx,%eax,%eax
     9e0:	b9 02 00 00 00       	mov    $0x2,%ecx
     9e5:	c4 e2 69 f7 c9       	shlx   %edx,%ecx,%ecx
     9ea:	89 ca                	mov    %ecx,%edx
     9ec:	f7 da                	neg    %edx
     9ee:	09 ca                	or     %ecx,%edx
     9f0:	21 c2                	and    %eax,%edx
     9f2:	f3 0f bc d2          	tzcnt  %edx,%edx
     9f6:	48 8d 3c d5 00 00 00 	lea    0x0(,%rdx,8),%rdi
     9fd:	00 
     9fe:	8d 8f ac 0e 00 00    	lea    0xeac(%rdi),%ecx
     a04:	41 8b 84 d0 b4 0e 00 	mov    0xeb4(%r8,%rdx,8),%eax
     a0b:	00 
     a0c:	42 8b 74 00 08       	mov    0x8(%rax,%r8,1),%esi
     a11:	39 f1                	cmp    %esi,%ecx
     a13:	0f 85 51 04 00 00    	jne    e6a <aot_func#4+0xaea>
     a19:	41 0f b3 d5          	btr    %edx,%r13d
     a1d:	45 89 a8 84 0e 00 00 	mov    %r13d,0xe84(%r8)
     a24:	e9 50 04 00 00       	jmp    e79 <aot_func#4+0xaf9>
     a29:	41 89 8c 10 b4 0e 00 	mov    %ecx,0xeb4(%r8,%rdx,1)
     a30:	00 
     a31:	49 8b 3e             	mov    (%r14),%rdi
     a34:	89 44 39 0c          	mov    %eax,0xc(%rcx,%rdi,1)
     a38:	8d 46 08             	lea    0x8(%rsi),%eax
     a3b:	8d 0c 16             	lea    (%rsi,%rdx,1),%ecx
     a3e:	83 ca 03             	or     $0x3,%edx
     a41:	49 8b 3e             	mov    (%r14),%rdi
     a44:	89 54 3e 04          	mov    %edx,0x4(%rsi,%rdi,1)
     a48:	49 8b 16             	mov    (%r14),%rdx
     a4b:	83 4c 11 04 01       	orl    $0x1,0x4(%rcx,%rdx,1)
     a50:	e9 3f 13 00 00       	jmp    1d94 <aot_func#4+0x1a14>
     a55:	42 8d 3c 20          	lea    (%rax,%r12,1),%edi
     a59:	89 d1                	mov    %edx,%ecx
     a5b:	83 c9 01             	or     $0x1,%ecx
     a5e:	42 89 4c 07 04       	mov    %ecx,0x4(%rdi,%r8,1)
     a63:	01 c6                	add    %eax,%esi
     a65:	49 8b 0e             	mov    (%r14),%rcx
     a68:	89 14 31             	mov    %edx,(%rcx,%rsi,1)
     a6b:	41 83 cc 03          	or     $0x3,%r12d
     a6f:	49 8b 0e             	mov    (%r14),%rcx
     a72:	44 89 64 08 04       	mov    %r12d,0x4(%rax,%rcx,1)
     a77:	49 8b 0e             	mov    (%r14),%rcx
     a7a:	89 91 8c 0e 00 00    	mov    %edx,0xe8c(%rcx)
     a80:	49 8b 0e             	mov    (%r14),%rcx
     a83:	89 b9 98 0e 00 00    	mov    %edi,0xe98(%rcx)
     a89:	83 c0 08             	add    $0x8,%eax
     a8c:	e9 03 13 00 00       	jmp    1d94 <aot_func#4+0x1a14>
     a91:	31 db                	xor    %ebx,%ebx
     a93:	31 c0                	xor    %eax,%eax
     a95:	89 c1                	mov    %eax,%ecx
     a97:	09 d9                	or     %ebx,%ecx
     a99:	75 28                	jne    ac3 <aot_func#4+0x743>
     a9b:	b8 02 00 00 00       	mov    $0x2,%eax
     aa0:	c4 e2 31 f7 c8       	shlx   %r9d,%eax,%ecx
     aa5:	89 c8                	mov    %ecx,%eax
     aa7:	f7 d8                	neg    %eax
     aa9:	09 c8                	or     %ecx,%eax
     aab:	23 44 24 08          	and    0x8(%rsp),%eax
     aaf:	0f 84 ea 00 00 00    	je     b9f <aot_func#4+0x81f>
     ab5:	f3 0f bc c0          	tzcnt  %eax,%eax
     ab9:	41 8b 9c 80 b4 0f 00 	mov    0xfb4(%r8,%rax,4),%ebx
     ac0:	00 
     ac1:	31 c0                	xor    %eax,%eax
     ac3:	89 de                	mov    %ebx,%esi
     ac5:	85 db                	test   %ebx,%ebx
     ac7:	0f 85 b5 00 00 00    	jne    b82 <aot_func#4+0x802>
     acd:	85 c0                	test   %eax,%eax
     acf:	0f 84 ca 00 00 00    	je     b9f <aot_func#4+0x81f>
     ad5:	41 8b 88 8c 0e 00 00 	mov    0xe8c(%r8),%ecx
     adc:	44 29 e1             	sub    %r12d,%ecx
     adf:	41 39 cf             	cmp    %ecx,%r15d
     ae2:	0f 83 d1 00 00 00    	jae    bb9 <aot_func#4+0x839>
     ae8:	4d 89 d3             	mov    %r10,%r11
     aeb:	41 89 c2             	mov    %eax,%r10d
     aee:	43 8b 7c 02 0c       	mov    0xc(%r10,%r8,1),%edi
     af3:	47 8b 4c 02 18       	mov    0x18(%r10,%r8,1),%r9d
     af8:	39 c7                	cmp    %eax,%edi
     afa:	0f 85 e4 03 00 00    	jne    ee4 <aot_func#4+0xb64>
     b00:	43 8b 74 02 14       	mov    0x14(%r10,%r8,1),%esi
     b05:	bb 14 00 00 00       	mov    $0x14,%ebx
     b0a:	85 f6                	test   %esi,%esi
     b0c:	75 12                	jne    b20 <aot_func#4+0x7a0>
     b0e:	43 8b 74 02 10       	mov    0x10(%r10,%r8,1),%esi
     b13:	bb 10 00 00 00       	mov    $0x10,%ebx
     b18:	85 f6                	test   %esi,%esi
     b1a:	0f 84 79 06 00 00    	je     1199 <aot_func#4+0xe19>
     b20:	01 c3                	add    %eax,%ebx
     b22:	66 66 66 66 66 2e 0f 	data16 data16 data16 data16 cs nopw 0x0(%rax,%rax,1)
     b29:	1f 84 00 00 00 00 00 
     b30:	89 dd                	mov    %ebx,%ebp
     b32:	89 f7                	mov    %esi,%edi
     b34:	8d 5f 14             	lea    0x14(%rdi),%ebx
     b37:	89 f1                	mov    %esi,%ecx
     b39:	42 8b 74 01 14       	mov    0x14(%rcx,%r8,1),%esi
     b3e:	85 f6                	test   %esi,%esi
     b40:	75 ee                	jne    b30 <aot_func#4+0x7b0>
     b42:	8d 5f 10             	lea    0x10(%rdi),%ebx
     b45:	42 8b 74 01 10       	mov    0x10(%rcx,%r8,1),%esi
     b4a:	85 f6                	test   %esi,%esi
     b4c:	75 e2                	jne    b30 <aot_func#4+0x7b0>
     b4e:	89 e9                	mov    %ebp,%ecx
     b50:	41 c7 04 08 00 00 00 	movl   $0x0,(%r8,%rcx,1)
     b57:	00 
     b58:	45 85 c9             	test   %r9d,%r9d
     b5b:	0f 85 9d 03 00 00    	jne    efe <aot_func#4+0xb7e>
     b61:	e9 3e 06 00 00       	jmp    11a4 <aot_func#4+0xe24>
     b66:	66 2e 0f 1f 84 00 00 	cs nopw 0x0(%rax,%rax,1)
     b6d:	00 00 00 
     b70:	44 39 fd             	cmp    %r15d,%ebp
     b73:	44 0f 42 fd          	cmovb  %ebp,%r15d
     b77:	0f 42 c7             	cmovb  %edi,%eax
     b7a:	85 f6                	test   %esi,%esi
     b7c:	0f 84 4b ff ff ff    	je     acd <aot_func#4+0x74d>
     b82:	89 f7                	mov    %esi,%edi
     b84:	42 8b 6c 07 04       	mov    0x4(%rdi,%r8,1),%ebp
     b89:	42 8b 74 07 10       	mov    0x10(%rdi,%r8,1),%esi
     b8e:	83 e5 f8             	and    $0xfffffff8,%ebp
     b91:	44 29 e5             	sub    %r12d,%ebp
     b94:	85 f6                	test   %esi,%esi
     b96:	75 d8                	jne    b70 <aot_func#4+0x7f0>
     b98:	42 8b 74 07 14       	mov    0x14(%rdi,%r8,1),%esi
     b9d:	eb d1                	jmp    b70 <aot_func#4+0x7f0>
     b9f:	4c 8b 3c 24          	mov    (%rsp),%r15
     ba3:	4c 89 ed             	mov    %r13,%rbp
     ba6:	41 8b b0 8c 0e 00 00 	mov    0xe8c(%r8),%esi
     bad:	89 f2                	mov    %esi,%edx
     baf:	44 29 e2             	sub    %r12d,%edx
     bb2:	72 1e                	jb     bd2 <aot_func#4+0x852>
     bb4:	e9 38 f8 ff ff       	jmp    3f1 <aot_func#4+0x71>
     bb9:	4c 89 ed             	mov    %r13,%rbp
     bbc:	4c 8b 3c 24          	mov    (%rsp),%r15
     bc0:	41 8b b0 8c 0e 00 00 	mov    0xe8c(%r8),%esi
     bc7:	89 f2                	mov    %esi,%edx
     bc9:	44 29 e2             	sub    %r12d,%edx
     bcc:	0f 83 1f f8 ff ff    	jae    3f1 <aot_func#4+0x71>
     bd2:	41 8b 80 90 0e 00 00 	mov    0xe90(%r8),%eax
     bd9:	89 c2                	mov    %eax,%edx
     bdb:	44 29 e2             	sub    %r12d,%edx
     bde:	76 3b                	jbe    c1b <aot_func#4+0x89b>
     be0:	43 8d 04 1c          	lea    (%r12,%r11,1),%eax
     be4:	89 d1                	mov    %edx,%ecx
     be6:	83 c9 01             	or     $0x1,%ecx
     be9:	42 89 4c 00 04       	mov    %ecx,0x4(%rax,%r8,1)
     bee:	49 8b 0e             	mov    (%r14),%rcx
     bf1:	89 81 9c 0e 00 00    	mov    %eax,0xe9c(%rcx)
     bf7:	49 8b 06             	mov    (%r14),%rax
     bfa:	89 90 90 0e 00 00    	mov    %edx,0xe90(%rax)
     c00:	41 83 cc 03          	or     $0x3,%r12d
     c04:	49 8b 06             	mov    (%r14),%rax
     c07:	44 89 d9             	mov    %r11d,%ecx
     c0a:	44 89 64 01 04       	mov    %r12d,0x4(%rcx,%rax,1)
     c0f:	41 83 c3 08          	add    $0x8,%r11d
     c13:	44 89 d8             	mov    %r11d,%eax
     c16:	e9 79 11 00 00       	jmp    1d94 <aot_func#4+0x1a14>
     c1b:	41 83 b8 5c 10 00 00 	cmpl   $0x0,0x105c(%r8)
     c22:	00 
     c23:	74 09                	je     c2e <aot_func#4+0x8ae>
     c25:	41 8b 88 64 10 00 00 	mov    0x1064(%r8),%ecx
     c2c:	eb 54                	jmp    c82 <aot_func#4+0x902>
     c2e:	49 c7 80 68 10 00 00 	movq   $0xffffffffffffffff,0x1068(%r8)
     c35:	ff ff ff ff 
     c39:	49 8b 0e             	mov    (%r14),%rcx
     c3c:	48 ba 00 00 01 00 00 	movabs $0x1000000010000,%rdx
     c43:	00 01 00 
     c46:	48 89 91 60 10 00 00 	mov    %rdx,0x1060(%rcx)
     c4d:	41 8d 4a fc          	lea    -0x4(%r10),%ecx
     c51:	83 e1 f0             	and    $0xfffffff0,%ecx
     c54:	81 f1 58 55 55 55    	xor    $0x55555558,%ecx
     c5a:	49 8b 16             	mov    (%r14),%rdx
     c5d:	89 8a 5c 10 00 00    	mov    %ecx,0x105c(%rdx)
     c63:	49 8b 0e             	mov    (%r14),%rcx
     c66:	c7 81 70 10 00 00 00 	movl   $0x0,0x1070(%rcx)
     c6d:	00 00 00 
     c70:	49 8b 0e             	mov    (%r14),%rcx
     c73:	c7 81 40 10 00 00 00 	movl   $0x0,0x1040(%rcx)
     c7a:	00 00 00 
     c7d:	b9 00 00 01 00       	mov    $0x10000,%ecx
     c82:	42 8d 34 21          	lea    (%rcx,%r12,1),%esi
     c86:	83 c6 47             	add    $0x47,%esi
     c89:	f7 d9                	neg    %ecx
     c8b:	41 89 f5             	mov    %esi,%r13d
     c8e:	41 21 cd             	and    %ecx,%r13d
     c91:	49 8b 16             	mov    (%r14),%rdx
     c94:	45 39 e5             	cmp    %r12d,%r13d
     c97:	0f 86 c1 00 00 00    	jbe    d5e <aot_func#4+0x9de>
     c9d:	44 8b 82 3c 10 00 00 	mov    0x103c(%rdx),%r8d
     ca4:	45 85 c0             	test   %r8d,%r8d
     ca7:	74 22                	je     ccb <aot_func#4+0x94b>
     ca9:	48 89 eb             	mov    %rbp,%rbx
     cac:	8b aa 34 10 00 00    	mov    0x1034(%rdx),%ebp
     cb2:	42 8d 7c 2d 00       	lea    0x0(%rbp,%r13,1),%edi
     cb7:	39 ef                	cmp    %ebp,%edi
     cb9:	0f 86 9f 00 00 00    	jbe    d5e <aot_func#4+0x9de>
     cbf:	48 89 dd             	mov    %rbx,%rbp
     cc2:	44 39 c7             	cmp    %r8d,%edi
     cc5:	0f 87 93 00 00 00    	ja     d5e <aot_func#4+0x9de>
     ccb:	f6 82 40 10 00 00 04 	testb  $0x4,0x1040(%rdx)
     cd2:	0f 85 f7 07 00 00    	jne    14cf <aot_func#4+0x114f>
     cd8:	41 8d 7c 24 47       	lea    0x47(%r12),%edi
     cdd:	89 7c 24 08          	mov    %edi,0x8(%rsp)
     ce1:	bf 44 10 00 00       	mov    $0x1044,%edi
     ce6:	eb 14                	jmp    cfc <aot_func#4+0x97c>
     ce8:	0f 1f 84 00 00 00 00 	nopl   0x0(%rax,%rax,1)
     cef:	00 
     cf0:	8b 7c 13 08          	mov    0x8(%rbx,%rdx,1),%edi
     cf4:	85 ff                	test   %edi,%edi
     cf6:	0f 84 3a 02 00 00    	je     f36 <aot_func#4+0xbb6>
     cfc:	89 fb                	mov    %edi,%ebx
     cfe:	8b 3c 1a             	mov    (%rdx,%rbx,1),%edi
     d01:	44 39 df             	cmp    %r11d,%edi
     d04:	77 ea                	ja     cf0 <aot_func#4+0x970>
     d06:	03 7c 13 04          	add    0x4(%rbx,%rdx,1),%edi
     d0a:	44 39 df             	cmp    %r11d,%edi
     d0d:	76 e1                	jbe    cf0 <aot_func#4+0x970>
     d0f:	29 c6                	sub    %eax,%esi
     d11:	21 ce                	and    %ecx,%esi
     d13:	81 fe fe ff ff 7f    	cmp    $0x7ffffffe,%esi
     d19:	0f 87 a6 07 00 00    	ja     14c5 <aot_func#4+0x1145>
     d1f:	48 89 ef             	mov    %rbp,%rdi
     d22:	4c 89 14 24          	mov    %r10,(%rsp)
     d26:	48 89 74 24 10       	mov    %rsi,0x10(%rsp)
     d2b:	e8 00 00 00 00       	call   d30 <aot_func#4+0x9b0>
     d30:	41 89 c1             	mov    %eax,%r9d
     d33:	49 8b 06             	mov    (%r14),%rax
     d36:	8b 4c 18 04          	mov    0x4(%rax,%rbx,1),%ecx
     d3a:	03 0c 18             	add    (%rax,%rbx,1),%ecx
     d3d:	41 39 c9             	cmp    %ecx,%r9d
     d40:	0f 85 d2 06 00 00    	jne    1418 <aot_func#4+0x1098>
     d46:	41 83 f9 ff          	cmp    $0xffffffff,%r9d
     d4a:	4c 8b 14 24          	mov    (%rsp),%r10
     d4e:	4c 8b 44 24 10       	mov    0x10(%rsp),%r8
     d53:	0f 85 0c 08 00 00    	jne    1565 <aot_func#4+0x11e5>
     d59:	e9 67 07 00 00       	jmp    14c5 <aot_func#4+0x1145>
     d5e:	c7 82 74 10 00 00 30 	movl   $0x30,0x1074(%rdx)
     d65:	00 00 00 
     d68:	e9 25 10 00 00       	jmp    1d92 <aot_func#4+0x1a12>
     d6d:	45 8b 88 88 0e 00 00 	mov    0xe88(%r8),%r9d
     d74:	45 85 c9             	test   %r9d,%r9d
     d77:	0f 84 d2 00 00 00    	je     e4f <aot_func#4+0xacf>
     d7d:	f3 41 0f bc c1       	tzcnt  %r9d,%eax
     d82:	41 8b b4 80 b4 0f 00 	mov    0xfb4(%r8,%rax,4),%esi
     d89:	00 
     d8a:	42 8b 7c 06 04       	mov    0x4(%rsi,%r8,1),%edi
     d8f:	83 e7 f8             	and    $0xfffffff8,%edi
     d92:	44 29 e7             	sub    %r12d,%edi
     d95:	89 f0                	mov    %esi,%eax
     d97:	eb 1c                	jmp    db5 <aot_func#4+0xa35>
     d99:	0f 1f 80 00 00 00 00 	nopl   0x0(%rax)
     da0:	89 f1                	mov    %esi,%ecx
     da2:	42 8b 4c 01 04       	mov    0x4(%rcx,%r8,1),%ecx
     da7:	83 e1 f8             	and    $0xfffffff8,%ecx
     daa:	44 29 e1             	sub    %r12d,%ecx
     dad:	39 f9                	cmp    %edi,%ecx
     daf:	0f 42 f9             	cmovb  %ecx,%edi
     db2:	0f 42 c6             	cmovb  %esi,%eax
     db5:	89 f1                	mov    %esi,%ecx
     db7:	42 8b 74 01 10       	mov    0x10(%rcx,%r8,1),%esi
     dbc:	85 f6                	test   %esi,%esi
     dbe:	75 e0                	jne    da0 <aot_func#4+0xa20>
     dc0:	42 8b 74 01 14       	mov    0x14(%rcx,%r8,1),%esi
     dc5:	85 f6                	test   %esi,%esi
     dc7:	75 d7                	jne    da0 <aot_func#4+0xa20>
     dc9:	41 89 c3             	mov    %eax,%r11d
     dcc:	43 8b 74 03 0c       	mov    0xc(%r11,%r8,1),%esi
     dd1:	43 8b 4c 03 18       	mov    0x18(%r11,%r8,1),%ecx
     dd6:	48 89 4c 24 08       	mov    %rcx,0x8(%rsp)
     ddb:	39 c6                	cmp    %eax,%esi
     ddd:	0f 85 96 02 00 00    	jne    1079 <aot_func#4+0xcf9>
     de3:	44 89 4c 24 10       	mov    %r9d,0x10(%rsp)
     de8:	43 8b 54 03 14       	mov    0x14(%r11,%r8,1),%edx
     ded:	bb 14 00 00 00       	mov    $0x14,%ebx
     df2:	85 d2                	test   %edx,%edx
     df4:	75 12                	jne    e08 <aot_func#4+0xa88>
     df6:	43 8b 54 03 10       	mov    0x10(%r11,%r8,1),%edx
     dfb:	bb 10 00 00 00       	mov    $0x10,%ebx
     e00:	85 d2                	test   %edx,%edx
     e02:	0f 84 8c 06 00 00    	je     1494 <aot_func#4+0x1114>
     e08:	01 c3                	add    %eax,%ebx
     e0a:	66 0f 1f 44 00 00    	nopw   0x0(%rax,%rax,1)
     e10:	89 dd                	mov    %ebx,%ebp
     e12:	89 d6                	mov    %edx,%esi
     e14:	8d 5e 14             	lea    0x14(%rsi),%ebx
     e17:	89 d1                	mov    %edx,%ecx
     e19:	42 8b 54 01 14       	mov    0x14(%rcx,%r8,1),%edx
     e1e:	85 d2                	test   %edx,%edx
     e20:	75 ee                	jne    e10 <aot_func#4+0xa90>
     e22:	8d 5e 10             	lea    0x10(%rsi),%ebx
     e25:	42 8b 54 01 10       	mov    0x10(%rcx,%r8,1),%edx
     e2a:	85 d2                	test   %edx,%edx
     e2c:	75 e2                	jne    e10 <aot_func#4+0xa90>
     e2e:	89 e9                	mov    %ebp,%ecx
     e30:	41 c7 04 08 00 00 00 	movl   $0x0,(%r8,%rcx,1)
     e37:	00 
     e38:	44 8b 4c 24 10       	mov    0x10(%rsp),%r9d
     e3d:	48 8b 5c 24 08       	mov    0x8(%rsp),%rbx
     e42:	85 db                	test   %ebx,%ebx
     e44:	0f 85 49 02 00 00    	jne    1093 <aot_func#4+0xd13>
     e4a:	e9 be 02 00 00       	jmp    110d <aot_func#4+0xd8d>
     e4f:	4c 8b 14 24          	mov    (%rsp),%r10
     e53:	41 8b b0 8c 0e 00 00 	mov    0xe8c(%r8),%esi
     e5a:	89 f2                	mov    %esi,%edx
     e5c:	44 29 e2             	sub    %r12d,%edx
     e5f:	0f 82 6d fd ff ff    	jb     bd2 <aot_func#4+0x852>
     e65:	e9 87 f5 ff ff       	jmp    3f1 <aot_func#4+0x71>
     e6a:	41 89 b4 38 b4 0e 00 	mov    %esi,0xeb4(%r8,%rdi,1)
     e71:	00 
     e72:	49 8b 16             	mov    (%r14),%rdx
     e75:	89 4c 16 0c          	mov    %ecx,0xc(%rsi,%rdx,1)
     e79:	44 89 e1             	mov    %r12d,%ecx
     e7c:	83 c9 03             	or     $0x3,%ecx
     e7f:	49 8b 16             	mov    (%r14),%rdx
     e82:	89 4c 10 04          	mov    %ecx,0x4(%rax,%rdx,1)
     e86:	8d 0c 38             	lea    (%rax,%rdi,1),%ecx
     e89:	44 29 e7             	sub    %r12d,%edi
     e8c:	49 8b 16             	mov    (%r14),%rdx
     e8f:	89 3c 0a             	mov    %edi,(%rdx,%rcx,1)
     e92:	41 01 c4             	add    %eax,%r12d
     e95:	89 f9                	mov    %edi,%ecx
     e97:	83 c9 01             	or     $0x1,%ecx
     e9a:	49 8b 16             	mov    (%r14),%rdx
     e9d:	41 89 4c 14 04       	mov    %ecx,0x4(%r12,%rdx,1)
     ea2:	45 85 d2             	test   %r10d,%r10d
     ea5:	0f 84 50 01 00 00    	je     ffb <aot_func#4+0xc7b>
     eab:	44 89 d1             	mov    %r10d,%ecx
     eae:	83 e1 f8             	and    $0xfffffff8,%ecx
     eb1:	81 c1 ac 0e 00 00    	add    $0xeac,%ecx
     eb7:	49 8b 1e             	mov    (%r14),%rbx
     eba:	8b b3 98 0e 00 00    	mov    0xe98(%rbx),%esi
     ec0:	41 c0 ea 03          	shr    $0x3,%r10b
     ec4:	41 0f b6 d2          	movzbl %r10b,%edx
     ec8:	41 0f a3 d5          	bt     %edx,%r13d
     ecc:	0f 83 ef 00 00 00    	jae    fc1 <aot_func#4+0xc41>
     ed2:	89 ca                	mov    %ecx,%edx
     ed4:	8b 6c 13 08          	mov    0x8(%rbx,%rdx,1),%ebp
     ed8:	48 83 c2 08          	add    $0x8,%rdx
     edc:	41 89 e8             	mov    %ebp,%r8d
     edf:	e9 fd 00 00 00       	jmp    fe1 <aot_func#4+0xc61>
     ee4:	43 8b 4c 02 08       	mov    0x8(%r10,%r8,1),%ecx
     ee9:	42 89 7c 01 0c       	mov    %edi,0xc(%rcx,%r8,1)
     eee:	49 8b 16             	mov    (%r14),%rdx
     ef1:	89 4c 17 08          	mov    %ecx,0x8(%rdi,%rdx,1)
     ef5:	45 85 c9             	test   %r9d,%r9d
     ef8:	0f 84 a6 02 00 00    	je     11a4 <aot_func#4+0xe24>
     efe:	49 8b 0e             	mov    (%r14),%rcx
     f01:	41 8b 74 0a 1c       	mov    0x1c(%r10,%rcx,1),%esi
     f06:	8d 2c b5 b4 0f 00 00 	lea    0xfb4(,%rsi,4),%ebp
     f0d:	3b 04 29             	cmp    (%rcx,%rbp,1),%eax
     f10:	0f 85 00 01 00 00    	jne    1016 <aot_func#4+0xc96>
     f16:	89 3c 29             	mov    %edi,(%rcx,%rbp,1)
     f19:	85 ff                	test   %edi,%edi
     f1b:	0f 85 11 01 00 00    	jne    1032 <aot_func#4+0xcb2>
     f21:	8b 5c 24 08          	mov    0x8(%rsp),%ebx
     f25:	0f b3 f3             	btr    %esi,%ebx
     f28:	49 8b 0e             	mov    (%r14),%rcx
     f2b:	89 99 88 0e 00 00    	mov    %ebx,0xe88(%rcx)
     f31:	e9 72 02 00 00       	jmp    11a8 <aot_func#4+0xe28>
     f36:	48 8b 45 10          	mov    0x10(%rbp),%rax
     f3a:	8b 98 68 01 00 00    	mov    0x168(%rax),%ebx
     f40:	c1 e3 10             	shl    $0x10,%ebx
     f43:	8b 82 60 10 00 00    	mov    0x1060(%rdx),%eax
     f49:	8d 48 ff             	lea    -0x1(%rax),%ecx
     f4c:	44 89 ee             	mov    %r13d,%esi
     f4f:	85 d9                	test   %ebx,%ecx
     f51:	74 0f                	je     f62 <aot_func#4+0xbe2>
     f53:	44 89 ef             	mov    %r13d,%edi
     f56:	29 df                	sub    %ebx,%edi
     f58:	01 d9                	add    %ebx,%ecx
     f5a:	f7 d8                	neg    %eax
     f5c:	21 c8                	and    %ecx,%eax
     f5e:	01 f8                	add    %edi,%eax
     f60:	89 c6                	mov    %eax,%esi
     f62:	44 39 e6             	cmp    %r12d,%esi
     f65:	0f 86 5a 05 00 00    	jbe    14c5 <aot_func#4+0x1145>
     f6b:	81 fe fe ff ff 7f    	cmp    $0x7ffffffe,%esi
     f71:	0f 87 4e 05 00 00    	ja     14c5 <aot_func#4+0x1145>
     f77:	45 85 c0             	test   %r8d,%r8d
     f7a:	74 1a                	je     f96 <aot_func#4+0xc16>
     f7c:	8b 92 34 10 00 00    	mov    0x1034(%rdx),%edx
     f82:	8d 04 32             	lea    (%rdx,%rsi,1),%eax
     f85:	39 d0                	cmp    %edx,%eax
     f87:	0f 86 38 05 00 00    	jbe    14c5 <aot_func#4+0x1145>
     f8d:	44 39 c0             	cmp    %r8d,%eax
     f90:	0f 87 2f 05 00 00    	ja     14c5 <aot_func#4+0x1145>
     f96:	48 89 ef             	mov    %rbp,%rdi
     f99:	4c 89 14 24          	mov    %r10,(%rsp)
     f9d:	48 89 74 24 10       	mov    %rsi,0x10(%rsp)
     fa2:	e8 00 00 00 00       	call   fa7 <aot_func#4+0xc27>
     fa7:	49 89 d9             	mov    %rbx,%r9
     faa:	4c 8b 44 24 10       	mov    0x10(%rsp),%r8
     faf:	4c 8b 14 24          	mov    (%rsp),%r10
     fb3:	44 39 c8             	cmp    %r9d,%eax
     fb6:	0f 85 68 04 00 00    	jne    1424 <aot_func#4+0x10a4>
     fbc:	e9 a4 05 00 00       	jmp    1565 <aot_func#4+0x11e5>
     fc1:	ba 01 00 00 00       	mov    $0x1,%edx
     fc6:	c4 e2 29 f7 d2       	shlx   %r10d,%edx,%edx
     fcb:	41 09 d5             	or     %edx,%r13d
     fce:	44 89 ab 84 0e 00 00 	mov    %r13d,0xe84(%rbx)
     fd5:	49 8b 1e             	mov    (%r14),%rbx
     fd8:	89 cd                	mov    %ecx,%ebp
     fda:	48 8d 55 08          	lea    0x8(%rbp),%rdx
     fde:	41 89 c8             	mov    %ecx,%r8d
     fe1:	89 74 1d 0c          	mov    %esi,0xc(%rbp,%rbx,1)
     fe5:	49 8b 2e             	mov    (%r14),%rbp
     fe8:	89 74 15 00          	mov    %esi,0x0(%rbp,%rdx,1)
     fec:	49 8b 16             	mov    (%r14),%rdx
     fef:	89 4c 16 0c          	mov    %ecx,0xc(%rsi,%rdx,1)
     ff3:	49 8b 0e             	mov    (%r14),%rcx
     ff6:	44 89 44 0e 08       	mov    %r8d,0x8(%rsi,%rcx,1)
     ffb:	83 c0 08             	add    $0x8,%eax
     ffe:	49 8b 0e             	mov    (%r14),%rcx
    1001:	44 89 a1 98 0e 00 00 	mov    %r12d,0xe98(%rcx)
    1008:	49 8b 0e             	mov    (%r14),%rcx
    100b:	89 b9 8c 0e 00 00    	mov    %edi,0xe8c(%rcx)
    1011:	e9 f9 03 00 00       	jmp    140f <aot_func#4+0x108f>
    1016:	31 d2                	xor    %edx,%edx
    1018:	41 39 44 09 10       	cmp    %eax,0x10(%r9,%rcx,1)
    101d:	0f 95 c2             	setne  %dl
    1020:	41 8d 14 91          	lea    (%r9,%rdx,4),%edx
    1024:	83 c2 10             	add    $0x10,%edx
    1027:	89 3c 11             	mov    %edi,(%rcx,%rdx,1)
    102a:	85 ff                	test   %edi,%edi
    102c:	0f 84 72 01 00 00    	je     11a4 <aot_func#4+0xe24>
    1032:	49 8b 16             	mov    (%r14),%rdx
    1035:	89 f9                	mov    %edi,%ecx
    1037:	44 89 4c 11 18       	mov    %r9d,0x18(%rcx,%rdx,1)
    103c:	49 8b 36             	mov    (%r14),%rsi
    103f:	41 8b 6c 32 10       	mov    0x10(%r10,%rsi,1),%ebp
    1044:	48 85 ed             	test   %rbp,%rbp
    1047:	74 0e                	je     1057 <aot_func#4+0xcd7>
    1049:	89 6c 31 10          	mov    %ebp,0x10(%rcx,%rsi,1)
    104d:	49 8b 16             	mov    (%r14),%rdx
    1050:	89 7c 15 18          	mov    %edi,0x18(%rbp,%rdx,1)
    1054:	49 8b 36             	mov    (%r14),%rsi
    1057:	41 8b 6c 32 14       	mov    0x14(%r10,%rsi,1),%ebp
    105c:	48 85 ed             	test   %rbp,%rbp
    105f:	8b 5c 24 08          	mov    0x8(%rsp),%ebx
    1063:	0f 84 3f 01 00 00    	je     11a8 <aot_func#4+0xe28>
    1069:	89 6c 31 14          	mov    %ebp,0x14(%rcx,%rsi,1)
    106d:	49 8b 0e             	mov    (%r14),%rcx
    1070:	89 7c 0d 18          	mov    %edi,0x18(%rbp,%rcx,1)
    1074:	e9 2f 01 00 00       	jmp    11a8 <aot_func#4+0xe28>
    1079:	43 8b 4c 03 08       	mov    0x8(%r11,%r8,1),%ecx
    107e:	42 89 74 01 0c       	mov    %esi,0xc(%rcx,%r8,1)
    1083:	49 8b 16             	mov    (%r14),%rdx
    1086:	89 4c 16 08          	mov    %ecx,0x8(%rsi,%rdx,1)
    108a:	48 8b 5c 24 08       	mov    0x8(%rsp),%rbx
    108f:	85 db                	test   %ebx,%ebx
    1091:	74 7a                	je     110d <aot_func#4+0xd8d>
    1093:	49 8b 0e             	mov    (%r14),%rcx
    1096:	41 8b 54 0b 1c       	mov    0x1c(%r11,%rcx,1),%edx
    109b:	8d 2c 95 b4 0f 00 00 	lea    0xfb4(,%rdx,4),%ebp
    10a2:	3b 04 29             	cmp    (%rcx,%rbp,1),%eax
    10a5:	75 17                	jne    10be <aot_func#4+0xd3e>
    10a7:	89 34 29             	mov    %esi,(%rcx,%rbp,1)
    10aa:	85 f6                	test   %esi,%esi
    10ac:	75 26                	jne    10d4 <aot_func#4+0xd54>
    10ae:	41 0f b3 d1          	btr    %edx,%r9d
    10b2:	49 8b 0e             	mov    (%r14),%rcx
    10b5:	44 89 89 88 0e 00 00 	mov    %r9d,0xe88(%rcx)
    10bc:	eb 4f                	jmp    110d <aot_func#4+0xd8d>
    10be:	31 d2                	xor    %edx,%edx
    10c0:	39 44 0b 10          	cmp    %eax,0x10(%rbx,%rcx,1)
    10c4:	0f 95 c2             	setne  %dl
    10c7:	8d 14 93             	lea    (%rbx,%rdx,4),%edx
    10ca:	83 c2 10             	add    $0x10,%edx
    10cd:	89 34 11             	mov    %esi,(%rcx,%rdx,1)
    10d0:	85 f6                	test   %esi,%esi
    10d2:	74 39                	je     110d <aot_func#4+0xd8d>
    10d4:	49 8b 16             	mov    (%r14),%rdx
    10d7:	89 f1                	mov    %esi,%ecx
    10d9:	89 5c 11 18          	mov    %ebx,0x18(%rcx,%rdx,1)
    10dd:	49 8b 16             	mov    (%r14),%rdx
    10e0:	41 8b 6c 13 10       	mov    0x10(%r11,%rdx,1),%ebp
    10e5:	48 85 ed             	test   %rbp,%rbp
    10e8:	74 0e                	je     10f8 <aot_func#4+0xd78>
    10ea:	89 6c 11 10          	mov    %ebp,0x10(%rcx,%rdx,1)
    10ee:	49 8b 16             	mov    (%r14),%rdx
    10f1:	89 74 15 18          	mov    %esi,0x18(%rbp,%rdx,1)
    10f5:	49 8b 16             	mov    (%r14),%rdx
    10f8:	41 8b 6c 13 14       	mov    0x14(%r11,%rdx,1),%ebp
    10fd:	48 85 ed             	test   %rbp,%rbp
    1100:	74 0b                	je     110d <aot_func#4+0xd8d>
    1102:	89 6c 11 14          	mov    %ebp,0x14(%rcx,%rdx,1)
    1106:	49 8b 0e             	mov    (%r14),%rcx
    1109:	89 74 0d 18          	mov    %esi,0x18(%rbp,%rcx,1)
    110d:	83 ff 0f             	cmp    $0xf,%edi
    1110:	76 69                	jbe    117b <aot_func#4+0xdfb>
    1112:	46 8d 04 20          	lea    (%rax,%r12,1),%r8d
    1116:	89 f9                	mov    %edi,%ecx
    1118:	83 c9 01             	or     $0x1,%ecx
    111b:	49 8b 16             	mov    (%r14),%rdx
    111e:	41 89 4c 10 04       	mov    %ecx,0x4(%r8,%rdx,1)
    1123:	41 83 cc 03          	or     $0x3,%r12d
    1127:	49 8b 0e             	mov    (%r14),%rcx
    112a:	45 89 64 0b 04       	mov    %r12d,0x4(%r11,%rcx,1)
    112f:	41 8d 0c 38          	lea    (%r8,%rdi,1),%ecx
    1133:	49 8b 16             	mov    (%r14),%rdx
    1136:	89 3c 0a             	mov    %edi,(%rdx,%rcx,1)
    1139:	45 85 d2             	test   %r10d,%r10d
    113c:	0f 84 b7 02 00 00    	je     13f9 <aot_func#4+0x1079>
    1142:	44 89 d6             	mov    %r10d,%esi
    1145:	83 e6 f8             	and    $0xfffffff8,%esi
    1148:	81 c6 ac 0e 00 00    	add    $0xeac,%esi
    114e:	49 8b 0e             	mov    (%r14),%rcx
    1151:	8b 99 98 0e 00 00    	mov    0xe98(%rcx),%ebx
    1157:	41 c0 ea 03          	shr    $0x3,%r10b
    115b:	41 0f b6 d2          	movzbl %r10b,%edx
    115f:	41 0f a3 d5          	bt     %edx,%r13d
    1163:	0f 83 58 02 00 00    	jae    13c1 <aot_func#4+0x1041>
    1169:	89 f2                	mov    %esi,%edx
    116b:	8b 6c 11 08          	mov    0x8(%rcx,%rdx,1),%ebp
    116f:	48 83 c2 08          	add    $0x8,%rdx
    1173:	41 89 ea             	mov    %ebp,%r10d
    1176:	e9 65 02 00 00       	jmp    13e0 <aot_func#4+0x1060>
    117b:	44 09 e7             	or     %r12d,%edi
    117e:	8d 0c 38             	lea    (%rax,%rdi,1),%ecx
    1181:	83 cf 03             	or     $0x3,%edi
    1184:	49 8b 16             	mov    (%r14),%rdx
    1187:	41 89 7c 13 04       	mov    %edi,0x4(%r11,%rdx,1)
    118c:	49 8b 16             	mov    (%r14),%rdx
    118f:	83 4c 11 04 01       	orl    $0x1,0x4(%rcx,%rdx,1)
    1194:	e9 73 02 00 00       	jmp    140c <aot_func#4+0x108c>
    1199:	31 ff                	xor    %edi,%edi
    119b:	45 85 c9             	test   %r9d,%r9d
    119e:	0f 85 5a fd ff ff    	jne    efe <aot_func#4+0xb7e>
    11a4:	8b 5c 24 08          	mov    0x8(%rsp),%ebx
    11a8:	41 83 ff 0f          	cmp    $0xf,%r15d
    11ac:	0f 86 f8 00 00 00    	jbe    12aa <aot_func#4+0xf2a>
    11b2:	46 8d 04 20          	lea    (%rax,%r12,1),%r8d
    11b6:	44 89 f9             	mov    %r15d,%ecx
    11b9:	83 c9 01             	or     $0x1,%ecx
    11bc:	49 8b 16             	mov    (%r14),%rdx
    11bf:	41 89 4c 10 04       	mov    %ecx,0x4(%r8,%rdx,1)
    11c4:	41 83 cc 03          	or     $0x3,%r12d
    11c8:	49 8b 0e             	mov    (%r14),%rcx
    11cb:	45 89 64 0a 04       	mov    %r12d,0x4(%r10,%rcx,1)
    11d0:	43 8d 0c 38          	lea    (%r8,%r15,1),%ecx
    11d4:	49 8b 16             	mov    (%r14),%rdx
    11d7:	44 89 3c 0a          	mov    %r15d,(%rdx,%rcx,1)
    11db:	41 81 ff ff 00 00 00 	cmp    $0xff,%r15d
    11e2:	0f 86 ec 00 00 00    	jbe    12d4 <aot_func#4+0xf54>
    11e8:	be 1f 00 00 00       	mov    $0x1f,%esi
    11ed:	41 81 ff ff ff ff 00 	cmp    $0xffffff,%r15d
    11f4:	4d 89 da             	mov    %r11,%r10
    11f7:	77 1e                	ja     1217 <aot_func#4+0xe97>
    11f9:	44 89 f9             	mov    %r15d,%ecx
    11fc:	c1 e9 08             	shr    $0x8,%ecx
    11ff:	f3 0f bd c9          	lzcnt  %ecx,%ecx
    1203:	ba 06 00 00 00       	mov    $0x6,%edx
    1208:	29 ca                	sub    %ecx,%edx
    120a:	01 c9                	add    %ecx,%ecx
    120c:	31 f6                	xor    %esi,%esi
    120e:	41 0f a3 d7          	bt     %edx,%r15d
    1212:	83 d6 3e             	adc    $0x3e,%esi
    1215:	29 ce                	sub    %ecx,%esi
    1217:	49 8b 0e             	mov    (%r14),%rcx
    121a:	41 89 74 08 1c       	mov    %esi,0x1c(%r8,%rcx,1)
    121f:	49 8b 0e             	mov    (%r14),%rcx
    1222:	49 c7 44 08 10 00 00 	movq   $0x0,0x10(%r8,%rcx,1)
    1229:	00 00 
    122b:	8d 3c b5 b4 0f 00 00 	lea    0xfb4(,%rsi,4),%edi
    1232:	0f a3 f3             	bt     %esi,%ebx
    1235:	0f 83 cb 00 00 00    	jae    1306 <aot_func#4+0xf86>
    123b:	89 f1                	mov    %esi,%ecx
    123d:	d0 e9                	shr    $1,%cl
    123f:	b2 19                	mov    $0x19,%dl
    1241:	28 ca                	sub    %cl,%dl
    1243:	80 e2 1f             	and    $0x1f,%dl
    1246:	31 c9                	xor    %ecx,%ecx
    1248:	83 fe 1f             	cmp    $0x1f,%esi
    124b:	0f b6 d2             	movzbl %dl,%edx
    124e:	0f 44 d1             	cmove  %ecx,%edx
    1251:	c4 c2 69 f7 df       	shlx   %edx,%r15d,%ebx
    1256:	49 8b 36             	mov    (%r14),%rsi
    1259:	89 f9                	mov    %edi,%ecx
    125b:	8b 2c 0e             	mov    (%rsi,%rcx,1),%ebp
    125e:	89 ef                	mov    %ebp,%edi
    1260:	89 ed                	mov    %ebp,%ebp
    1262:	8b 4c 35 04          	mov    0x4(%rbp,%rsi,1),%ecx
    1266:	83 e1 f8             	and    $0xfffffff8,%ecx
    1269:	44 39 f9             	cmp    %r15d,%ecx
    126c:	0f 84 16 01 00 00    	je     1388 <aot_func#4+0x1008>
    1272:	8d 14 1b             	lea    (%rbx,%rbx,1),%edx
    1275:	c1 eb 1f             	shr    $0x1f,%ebx
    1278:	8d 0c 9f             	lea    (%rdi,%rbx,4),%ecx
    127b:	83 c1 10             	add    $0x10,%ecx
    127e:	8b 2c 0e             	mov    (%rsi,%rcx,1),%ebp
    1281:	89 d3                	mov    %edx,%ebx
    1283:	85 ed                	test   %ebp,%ebp
    1285:	75 d7                	jne    125e <aot_func#4+0xede>
    1287:	89 c9                	mov    %ecx,%ecx
    1289:	44 89 04 0e          	mov    %r8d,(%rsi,%rcx,1)
    128d:	49 8b 0e             	mov    (%r14),%rcx
    1290:	41 89 7c 08 18       	mov    %edi,0x18(%r8,%rcx,1)
    1295:	49 8b 0e             	mov    (%r14),%rcx
    1298:	45 89 44 08 0c       	mov    %r8d,0xc(%r8,%rcx,1)
    129d:	49 8b 0e             	mov    (%r14),%rcx
    12a0:	45 89 44 08 08       	mov    %r8d,0x8(%r8,%rcx,1)
    12a5:	e9 0b 01 00 00       	jmp    13b5 <aot_func#4+0x1035>
    12aa:	45 09 e7             	or     %r12d,%r15d
    12ad:	42 8d 0c 38          	lea    (%rax,%r15,1),%ecx
    12b1:	41 83 cf 03          	or     $0x3,%r15d
    12b5:	49 8b 16             	mov    (%r14),%rdx
    12b8:	45 89 7c 12 04       	mov    %r15d,0x4(%r10,%rdx,1)
    12bd:	49 8b 16             	mov    (%r14),%rdx
    12c0:	83 4c 11 04 01       	orl    $0x1,0x4(%rcx,%rdx,1)
    12c5:	83 c0 08             	add    $0x8,%eax
    12c8:	4c 8b 3c 24          	mov    (%rsp),%r15
    12cc:	4d 89 da             	mov    %r11,%r10
    12cf:	e9 c0 0a 00 00       	jmp    1d94 <aot_func#4+0x1a14>
    12d4:	44 89 fe             	mov    %r15d,%esi
    12d7:	83 e6 f8             	and    $0xfffffff8,%esi
    12da:	8d be ac 0e 00 00    	lea    0xeac(%rsi),%edi
    12e0:	49 8b 1e             	mov    (%r14),%rbx
    12e3:	8b ab 84 0e 00 00    	mov    0xe84(%rbx),%ebp
    12e9:	41 c1 ef 03          	shr    $0x3,%r15d
    12ed:	44 0f a3 fd          	bt     %r15d,%ebp
    12f1:	4d 89 da             	mov    %r11,%r10
    12f4:	73 48                	jae    133e <aot_func#4+0xfbe>
    12f6:	8b 94 33 b4 0e 00 00 	mov    0xeb4(%rbx,%rsi,1),%edx
    12fd:	48 81 c6 b4 0e 00 00 	add    $0xeb4,%rsi
    1304:	eb 58                	jmp    135e <aot_func#4+0xfde>
    1306:	b9 01 00 00 00       	mov    $0x1,%ecx
    130b:	c4 e2 49 f7 c9       	shlx   %esi,%ecx,%ecx
    1310:	49 8b 16             	mov    (%r14),%rdx
    1313:	89 fe                	mov    %edi,%esi
    1315:	44 89 04 32          	mov    %r8d,(%rdx,%rsi,1)
    1319:	09 d9                	or     %ebx,%ecx
    131b:	49 8b 16             	mov    (%r14),%rdx
    131e:	89 8a 88 0e 00 00    	mov    %ecx,0xe88(%rdx)
    1324:	49 8b 0e             	mov    (%r14),%rcx
    1327:	41 89 7c 08 18       	mov    %edi,0x18(%r8,%rcx,1)
    132c:	49 8b 0e             	mov    (%r14),%rcx
    132f:	45 89 44 08 08       	mov    %r8d,0x8(%r8,%rcx,1)
    1334:	49 8b 0e             	mov    (%r14),%rcx
    1337:	45 89 44 08 0c       	mov    %r8d,0xc(%r8,%rcx,1)
    133c:	eb 77                	jmp    13b5 <aot_func#4+0x1035>
    133e:	b9 01 00 00 00       	mov    $0x1,%ecx
    1343:	c4 e2 01 f7 c9       	shlx   %r15d,%ecx,%ecx
    1348:	09 cd                	or     %ecx,%ebp
    134a:	89 ab 84 0e 00 00    	mov    %ebp,0xe84(%rbx)
    1350:	49 8b 1e             	mov    (%r14),%rbx
    1353:	89 f6                	mov    %esi,%esi
    1355:	48 81 c6 b4 0e 00 00 	add    $0xeb4,%rsi
    135c:	89 fa                	mov    %edi,%edx
    135e:	4c 8b 3c 24          	mov    (%rsp),%r15
    1362:	89 d1                	mov    %edx,%ecx
    1364:	44 89 44 19 0c       	mov    %r8d,0xc(%rcx,%rbx,1)
    1369:	49 8b 0e             	mov    (%r14),%rcx
    136c:	44 89 04 31          	mov    %r8d,(%rcx,%rsi,1)
    1370:	49 8b 0e             	mov    (%r14),%rcx
    1373:	41 89 7c 08 0c       	mov    %edi,0xc(%r8,%rcx,1)
    1378:	49 8b 0e             	mov    (%r14),%rcx
    137b:	41 89 54 08 08       	mov    %edx,0x8(%r8,%rcx,1)
    1380:	83 c0 08             	add    $0x8,%eax
    1383:	e9 0c 0a 00 00       	jmp    1d94 <aot_func#4+0x1a14>
    1388:	8b 4c 2e 08          	mov    0x8(%rsi,%rbp,1),%ecx
    138c:	44 89 44 31 0c       	mov    %r8d,0xc(%rcx,%rsi,1)
    1391:	49 8b 16             	mov    (%r14),%rdx
    1394:	44 89 44 2a 08       	mov    %r8d,0x8(%rdx,%rbp,1)
    1399:	49 8b 16             	mov    (%r14),%rdx
    139c:	41 c7 44 10 18 00 00 	movl   $0x0,0x18(%r8,%rdx,1)
    13a3:	00 00 
    13a5:	49 8b 16             	mov    (%r14),%rdx
    13a8:	41 89 7c 10 0c       	mov    %edi,0xc(%r8,%rdx,1)
    13ad:	49 8b 16             	mov    (%r14),%rdx
    13b0:	41 89 4c 10 08       	mov    %ecx,0x8(%r8,%rdx,1)
    13b5:	83 c0 08             	add    $0x8,%eax
    13b8:	4c 8b 3c 24          	mov    (%rsp),%r15
    13bc:	e9 d3 09 00 00       	jmp    1d94 <aot_func#4+0x1a14>
    13c1:	ba 01 00 00 00       	mov    $0x1,%edx
    13c6:	c4 e2 29 f7 d2       	shlx   %r10d,%edx,%edx
    13cb:	44 09 ea             	or     %r13d,%edx
    13ce:	89 91 84 0e 00 00    	mov    %edx,0xe84(%rcx)
    13d4:	49 8b 0e             	mov    (%r14),%rcx
    13d7:	89 f5                	mov    %esi,%ebp
    13d9:	48 8d 55 08          	lea    0x8(%rbp),%rdx
    13dd:	41 89 f2             	mov    %esi,%r10d
    13e0:	89 5c 0d 0c          	mov    %ebx,0xc(%rbp,%rcx,1)
    13e4:	49 8b 0e             	mov    (%r14),%rcx
    13e7:	89 1c 11             	mov    %ebx,(%rcx,%rdx,1)
    13ea:	49 8b 0e             	mov    (%r14),%rcx
    13ed:	89 74 0b 0c          	mov    %esi,0xc(%rbx,%rcx,1)
    13f1:	49 8b 0e             	mov    (%r14),%rcx
    13f4:	44 89 54 0b 08       	mov    %r10d,0x8(%rbx,%rcx,1)
    13f9:	49 8b 0e             	mov    (%r14),%rcx
    13fc:	44 89 81 98 0e 00 00 	mov    %r8d,0xe98(%rcx)
    1403:	49 8b 0e             	mov    (%r14),%rcx
    1406:	89 b9 8c 0e 00 00    	mov    %edi,0xe8c(%rcx)
    140c:	83 c0 08             	add    $0x8,%eax
    140f:	4c 8b 14 24          	mov    (%rsp),%r10
    1413:	e9 7c 09 00 00       	jmp    1d94 <aot_func#4+0x1a14>
    1418:	44 89 c8             	mov    %r9d,%eax
    141b:	4c 8b 14 24          	mov    (%rsp),%r10
    141f:	4c 8b 44 24 10       	mov    0x10(%rsp),%r8
    1424:	41 8d 4c 24 48       	lea    0x48(%r12),%ecx
    1429:	41 39 c8             	cmp    %ecx,%r8d
    142c:	73 58                	jae    1486 <aot_func#4+0x1106>
    142e:	83 f8 ff             	cmp    $0xffffffff,%eax
    1431:	74 53                	je     1486 <aot_func#4+0x1106>
    1433:	8b 4c 24 08          	mov    0x8(%rsp),%ecx
    1437:	44 29 c1             	sub    %r8d,%ecx
    143a:	49 8b 16             	mov    (%r14),%rdx
    143d:	8b b2 64 10 00 00    	mov    0x1064(%rdx),%esi
    1443:	01 f1                	add    %esi,%ecx
    1445:	f7 de                	neg    %esi
    1447:	21 ce                	and    %ecx,%esi
    1449:	81 fe fe ff ff 7f    	cmp    $0x7ffffffe,%esi
    144f:	77 5c                	ja     14ad <aot_func#4+0x112d>
    1451:	89 44 24 08          	mov    %eax,0x8(%rsp)
    1455:	4c 89 c3             	mov    %r8,%rbx
    1458:	4c 89 14 24          	mov    %r10,(%rsp)
    145c:	48 89 ef             	mov    %rbp,%rdi
    145f:	89 74 24 10          	mov    %esi,0x10(%rsp)
    1463:	e8 00 00 00 00       	call   1468 <aot_func#4+0x10e8>
    1468:	83 f8 ff             	cmp    $0xffffffff,%eax
    146b:	74 48                	je     14b5 <aot_func#4+0x1135>
    146d:	8b 44 24 10          	mov    0x10(%rsp),%eax
    1471:	01 d8                	add    %ebx,%eax
    1473:	41 89 c0             	mov    %eax,%r8d
    1476:	8b 44 24 08          	mov    0x8(%rsp),%eax
    147a:	41 89 c1             	mov    %eax,%r9d
    147d:	4c 8b 14 24          	mov    (%rsp),%r10
    1481:	e9 df 00 00 00       	jmp    1565 <aot_func#4+0x11e5>
    1486:	41 89 c1             	mov    %eax,%r9d
    1489:	83 f8 ff             	cmp    $0xffffffff,%eax
    148c:	0f 85 d3 00 00 00    	jne    1565 <aot_func#4+0x11e5>
    1492:	eb 31                	jmp    14c5 <aot_func#4+0x1145>
    1494:	31 f6                	xor    %esi,%esi
    1496:	44 8b 4c 24 10       	mov    0x10(%rsp),%r9d
    149b:	48 8b 5c 24 08       	mov    0x8(%rsp),%rbx
    14a0:	85 db                	test   %ebx,%ebx
    14a2:	0f 85 eb fb ff ff    	jne    1093 <aot_func#4+0xd13>
    14a8:	e9 60 fc ff ff       	jmp    110d <aot_func#4+0xd8d>
    14ad:	41 89 c1             	mov    %eax,%r9d
    14b0:	e9 b0 00 00 00       	jmp    1565 <aot_func#4+0x11e5>
    14b5:	f7 db                	neg    %ebx
    14b7:	48 89 ef             	mov    %rbp,%rdi
    14ba:	89 de                	mov    %ebx,%esi
    14bc:	e8 00 00 00 00       	call   14c1 <aot_func#4+0x1141>
    14c1:	4c 8b 14 24          	mov    (%rsp),%r10
    14c5:	49 8b 06             	mov    (%r14),%rax
    14c8:	83 88 40 10 00 00 04 	orl    $0x4,0x1040(%rax)
    14cf:	41 81 fd fe ff ff 7f 	cmp    $0x7ffffffe,%r13d
    14d6:	0f 87 a9 08 00 00    	ja     1d85 <aot_func#4+0x1a05>
    14dc:	4c 89 14 24          	mov    %r10,(%rsp)
    14e0:	48 8b 7d 10          	mov    0x10(%rbp),%rdi
    14e4:	41 f7 c5 ff ff 00 80 	test   $0x8000ffff,%r13d
    14eb:	74 19                	je     1506 <aot_func#4+0x1186>
    14ed:	48 89 fb             	mov    %rdi,%rbx
    14f0:	31 f6                	xor    %esi,%esi
    14f2:	e8 00 00 00 00       	call   14f7 <aot_func#4+0x1177>
    14f7:	48 89 df             	mov    %rbx,%rdi
    14fa:	31 f6                	xor    %esi,%esi
    14fc:	e8 00 00 00 00       	call   1501 <aot_func#4+0x1181>
    1501:	45 31 c9             	xor    %r9d,%r9d
    1504:	eb 35                	jmp    153b <aot_func#4+0x11bb>
    1506:	41 c1 ed 10          	shr    $0x10,%r13d
    150a:	8b 87 68 01 00 00    	mov    0x168(%rdi),%eax
    1510:	48 89 44 24 08       	mov    %rax,0x8(%rsp)
    1515:	48 89 fb             	mov    %rdi,%rbx
    1518:	44 89 ee             	mov    %r13d,%esi
    151b:	e8 00 00 00 00       	call   1520 <aot_func#4+0x11a0>
    1520:	4c 8b 4c 24 08       	mov    0x8(%rsp),%r9
    1525:	84 c0                	test   %al,%al
    1527:	0f 84 7e 04 00 00    	je     19ab <aot_func#4+0x162b>
    152d:	41 83 f9 ff          	cmp    $0xffffffff,%r9d
    1531:	0f 84 74 04 00 00    	je     19ab <aot_func#4+0x162b>
    1537:	41 c1 e1 10          	shl    $0x10,%r9d
    153b:	4c 8b 14 24          	mov    (%rsp),%r10
    153f:	48 8b 45 10          	mov    0x10(%rbp),%rax
    1543:	44 8b 80 68 01 00 00 	mov    0x168(%rax),%r8d
    154a:	41 c1 e0 10          	shl    $0x10,%r8d
    154e:	45 29 c8             	sub    %r9d,%r8d
    1551:	0f 86 2e 08 00 00    	jbe    1d85 <aot_func#4+0x1a05>
    1557:	41 8d 44 24 38       	lea    0x38(%r12),%eax
    155c:	41 39 c0             	cmp    %eax,%r8d
    155f:	0f 86 20 08 00 00    	jbe    1d85 <aot_func#4+0x1a05>
    1565:	49 8b 0e             	mov    (%r14),%rcx
    1568:	8b 81 34 10 00 00    	mov    0x1034(%rcx),%eax
    156e:	44 01 c0             	add    %r8d,%eax
    1571:	89 81 34 10 00 00    	mov    %eax,0x1034(%rcx)
    1577:	49 8b 0e             	mov    (%r14),%rcx
    157a:	3b 81 38 10 00 00    	cmp    0x1038(%rcx),%eax
    1580:	76 09                	jbe    158b <aot_func#4+0x120b>
    1582:	89 81 38 10 00 00    	mov    %eax,0x1038(%rcx)
    1588:	49 8b 0e             	mov    (%r14),%rcx
    158b:	8b 81 9c 0e 00 00    	mov    0xe9c(%rcx),%eax
    1591:	48 85 c0             	test   %rax,%rax
    1594:	74 2a                	je     15c0 <aot_func#4+0x1240>
    1596:	48 89 eb             	mov    %rbp,%rbx
    1599:	ba 44 10 00 00       	mov    $0x1044,%edx
    159e:	89 d2                	mov    %edx,%edx
    15a0:	8b 3c 11             	mov    (%rcx,%rdx,1),%edi
    15a3:	8b 74 11 04          	mov    0x4(%rcx,%rdx,1),%esi
    15a7:	8d 2c 3e             	lea    (%rsi,%rdi,1),%ebp
    15aa:	41 39 e9             	cmp    %ebp,%r9d
    15ad:	0f 84 12 04 00 00    	je     19c5 <aot_func#4+0x1645>
    15b3:	8b 54 0a 08          	mov    0x8(%rdx,%rcx,1),%edx
    15b7:	85 d2                	test   %edx,%edx
    15b9:	75 e3                	jne    159e <aot_func#4+0x121e>
    15bb:	e9 75 04 00 00       	jmp    1a35 <aot_func#4+0x16b5>
    15c0:	8b 81 94 0e 00 00    	mov    0xe94(%rcx),%eax
    15c6:	85 c0                	test   %eax,%eax
    15c8:	74 05                	je     15cf <aot_func#4+0x124f>
    15ca:	41 39 c1             	cmp    %eax,%r9d
    15cd:	73 0a                	jae    15d9 <aot_func#4+0x1259>
    15cf:	44 89 89 94 0e 00 00 	mov    %r9d,0xe94(%rcx)
    15d6:	49 8b 0e             	mov    (%r14),%rcx
    15d9:	44 89 81 48 10 00 00 	mov    %r8d,0x1048(%rcx)
    15e0:	49 8b 06             	mov    (%r14),%rax
    15e3:	44 89 88 44 10 00 00 	mov    %r9d,0x1044(%rax)
    15ea:	49 8b 06             	mov    (%r14),%rax
    15ed:	c7 80 a4 0e 00 00 ff 	movl   $0xffffffff,0xea4(%rax)
    15f4:	ff ff ff 
    15f7:	49 8b 06             	mov    (%r14),%rax
    15fa:	8b 88 5c 10 00 00    	mov    0x105c(%rax),%ecx
    1600:	89 88 a8 0e 00 00    	mov    %ecx,0xea8(%rax)
    1606:	49 8b 06             	mov    (%r14),%rax
    1609:	c7 80 50 10 00 00 00 	movl   $0x0,0x1050(%rax)
    1610:	00 00 00 
    1613:	49 8b 06             	mov    (%r14),%rax
    1616:	c7 80 c0 0e 00 00 b4 	movl   $0xeb4,0xec0(%rax)
    161d:	0e 00 00 
    1620:	49 8b 06             	mov    (%r14),%rax
    1623:	c7 80 b4 0e 00 00 ac 	movl   $0xeac,0xeb4(%rax)
    162a:	0e 00 00 
    162d:	49 8b 06             	mov    (%r14),%rax
    1630:	c7 80 b8 0e 00 00 ac 	movl   $0xeac,0xeb8(%rax)
    1637:	0e 00 00 
    163a:	49 8b 06             	mov    (%r14),%rax
    163d:	c7 80 c8 0e 00 00 bc 	movl   $0xebc,0xec8(%rax)
    1644:	0e 00 00 
    1647:	49 8b 06             	mov    (%r14),%rax
    164a:	c7 80 bc 0e 00 00 b4 	movl   $0xeb4,0xebc(%rax)
    1651:	0e 00 00 
    1654:	49 8b 06             	mov    (%r14),%rax
    1657:	c7 80 d0 0e 00 00 c4 	movl   $0xec4,0xed0(%rax)
    165e:	0e 00 00 
    1661:	49 8b 06             	mov    (%r14),%rax
    1664:	c7 80 c4 0e 00 00 bc 	movl   $0xebc,0xec4(%rax)
    166b:	0e 00 00 
    166e:	49 8b 06             	mov    (%r14),%rax
    1671:	c7 80 cc 0e 00 00 c4 	movl   $0xec4,0xecc(%rax)
    1678:	0e 00 00 
    167b:	49 8b 06             	mov    (%r14),%rax
    167e:	c7 80 e0 0e 00 00 d4 	movl   $0xed4,0xee0(%rax)
    1685:	0e 00 00 
    1688:	49 8b 06             	mov    (%r14),%rax
    168b:	c7 80 d4 0e 00 00 cc 	movl   $0xecc,0xed4(%rax)
    1692:	0e 00 00 
    1695:	49 8b 06             	mov    (%r14),%rax
    1698:	c7 80 d8 0e 00 00 cc 	movl   $0xecc,0xed8(%rax)
    169f:	0e 00 00 
    16a2:	49 8b 06             	mov    (%r14),%rax
    16a5:	c7 80 e8 0e 00 00 dc 	movl   $0xedc,0xee8(%rax)
    16ac:	0e 00 00 
    16af:	49 8b 06             	mov    (%r14),%rax
    16b2:	c7 80 dc 0e 00 00 d4 	movl   $0xed4,0xedc(%rax)
    16b9:	0e 00 00 
    16bc:	49 8b 06             	mov    (%r14),%rax
    16bf:	c7 80 f0 0e 00 00 e4 	movl   $0xee4,0xef0(%rax)
    16c6:	0e 00 00 
    16c9:	49 8b 06             	mov    (%r14),%rax
    16cc:	c7 80 e4 0e 00 00 dc 	movl   $0xedc,0xee4(%rax)
    16d3:	0e 00 00 
    16d6:	49 8b 06             	mov    (%r14),%rax
    16d9:	c7 80 ec 0e 00 00 e4 	movl   $0xee4,0xeec(%rax)
    16e0:	0e 00 00 
    16e3:	49 8b 06             	mov    (%r14),%rax
    16e6:	c7 80 00 0f 00 00 f4 	movl   $0xef4,0xf00(%rax)
    16ed:	0e 00 00 
    16f0:	49 8b 06             	mov    (%r14),%rax
    16f3:	c7 80 f4 0e 00 00 ec 	movl   $0xeec,0xef4(%rax)
    16fa:	0e 00 00 
    16fd:	49 8b 06             	mov    (%r14),%rax
    1700:	c7 80 f8 0e 00 00 ec 	movl   $0xeec,0xef8(%rax)
    1707:	0e 00 00 
    170a:	49 8b 06             	mov    (%r14),%rax
    170d:	c7 80 08 0f 00 00 fc 	movl   $0xefc,0xf08(%rax)
    1714:	0e 00 00 
    1717:	49 8b 06             	mov    (%r14),%rax
    171a:	c7 80 fc 0e 00 00 f4 	movl   $0xef4,0xefc(%rax)
    1721:	0e 00 00 
    1724:	49 8b 06             	mov    (%r14),%rax
    1727:	c7 80 10 0f 00 00 04 	movl   $0xf04,0xf10(%rax)
    172e:	0f 00 00 
    1731:	49 8b 06             	mov    (%r14),%rax
    1734:	c7 80 04 0f 00 00 fc 	movl   $0xefc,0xf04(%rax)
    173b:	0e 00 00 
    173e:	49 8b 06             	mov    (%r14),%rax
    1741:	c7 80 0c 0f 00 00 04 	movl   $0xf04,0xf0c(%rax)
    1748:	0f 00 00 
    174b:	49 8b 06             	mov    (%r14),%rax
    174e:	c7 80 20 0f 00 00 14 	movl   $0xf14,0xf20(%rax)
    1755:	0f 00 00 
    1758:	49 8b 06             	mov    (%r14),%rax
    175b:	c7 80 14 0f 00 00 0c 	movl   $0xf0c,0xf14(%rax)
    1762:	0f 00 00 
    1765:	49 8b 06             	mov    (%r14),%rax
    1768:	c7 80 18 0f 00 00 0c 	movl   $0xf0c,0xf18(%rax)
    176f:	0f 00 00 
    1772:	49 8b 06             	mov    (%r14),%rax
    1775:	c7 80 28 0f 00 00 1c 	movl   $0xf1c,0xf28(%rax)
    177c:	0f 00 00 
    177f:	49 8b 06             	mov    (%r14),%rax
    1782:	c7 80 1c 0f 00 00 14 	movl   $0xf14,0xf1c(%rax)
    1789:	0f 00 00 
    178c:	49 8b 06             	mov    (%r14),%rax
    178f:	c7 80 30 0f 00 00 24 	movl   $0xf24,0xf30(%rax)
    1796:	0f 00 00 
    1799:	49 8b 06             	mov    (%r14),%rax
    179c:	c7 80 24 0f 00 00 1c 	movl   $0xf1c,0xf24(%rax)
    17a3:	0f 00 00 
    17a6:	49 8b 06             	mov    (%r14),%rax
    17a9:	c7 80 2c 0f 00 00 24 	movl   $0xf24,0xf2c(%rax)
    17b0:	0f 00 00 
    17b3:	49 8b 06             	mov    (%r14),%rax
    17b6:	c7 80 40 0f 00 00 34 	movl   $0xf34,0xf40(%rax)
    17bd:	0f 00 00 
    17c0:	49 8b 06             	mov    (%r14),%rax
    17c3:	c7 80 34 0f 00 00 2c 	movl   $0xf2c,0xf34(%rax)
    17ca:	0f 00 00 
    17cd:	49 8b 06             	mov    (%r14),%rax
    17d0:	c7 80 38 0f 00 00 2c 	movl   $0xf2c,0xf38(%rax)
    17d7:	0f 00 00 
    17da:	49 8b 06             	mov    (%r14),%rax
    17dd:	c7 80 48 0f 00 00 3c 	movl   $0xf3c,0xf48(%rax)
    17e4:	0f 00 00 
    17e7:	49 8b 06             	mov    (%r14),%rax
    17ea:	c7 80 3c 0f 00 00 34 	movl   $0xf34,0xf3c(%rax)
    17f1:	0f 00 00 
    17f4:	49 8b 06             	mov    (%r14),%rax
    17f7:	c7 80 50 0f 00 00 44 	movl   $0xf44,0xf50(%rax)
    17fe:	0f 00 00 
    1801:	49 8b 06             	mov    (%r14),%rax
    1804:	c7 80 44 0f 00 00 3c 	movl   $0xf3c,0xf44(%rax)
    180b:	0f 00 00 
    180e:	49 8b 06             	mov    (%r14),%rax
    1811:	c7 80 4c 0f 00 00 44 	movl   $0xf44,0xf4c(%rax)
    1818:	0f 00 00 
    181b:	49 8b 06             	mov    (%r14),%rax
    181e:	c7 80 60 0f 00 00 54 	movl   $0xf54,0xf60(%rax)
    1825:	0f 00 00 
    1828:	49 8b 06             	mov    (%r14),%rax
    182b:	c7 80 54 0f 00 00 4c 	movl   $0xf4c,0xf54(%rax)
    1832:	0f 00 00 
    1835:	49 8b 06             	mov    (%r14),%rax
    1838:	c7 80 58 0f 00 00 4c 	movl   $0xf4c,0xf58(%rax)
    183f:	0f 00 00 
    1842:	49 8b 06             	mov    (%r14),%rax
    1845:	c7 80 68 0f 00 00 5c 	movl   $0xf5c,0xf68(%rax)
    184c:	0f 00 00 
    184f:	49 8b 06             	mov    (%r14),%rax
    1852:	c7 80 5c 0f 00 00 54 	movl   $0xf54,0xf5c(%rax)
    1859:	0f 00 00 
    185c:	49 8b 06             	mov    (%r14),%rax
    185f:	c7 80 70 0f 00 00 64 	movl   $0xf64,0xf70(%rax)
    1866:	0f 00 00 
    1869:	49 8b 06             	mov    (%r14),%rax
    186c:	c7 80 64 0f 00 00 5c 	movl   $0xf5c,0xf64(%rax)
    1873:	0f 00 00 
    1876:	49 8b 06             	mov    (%r14),%rax
    1879:	c7 80 6c 0f 00 00 64 	movl   $0xf64,0xf6c(%rax)
    1880:	0f 00 00 
    1883:	49 8b 06             	mov    (%r14),%rax
    1886:	c7 80 80 0f 00 00 74 	movl   $0xf74,0xf80(%rax)
    188d:	0f 00 00 
    1890:	49 8b 06             	mov    (%r14),%rax
    1893:	c7 80 74 0f 00 00 6c 	movl   $0xf6c,0xf74(%rax)
    189a:	0f 00 00 
    189d:	49 8b 06             	mov    (%r14),%rax
    18a0:	c7 80 78 0f 00 00 6c 	movl   $0xf6c,0xf78(%rax)
    18a7:	0f 00 00 
    18aa:	49 8b 06             	mov    (%r14),%rax
    18ad:	c7 80 88 0f 00 00 7c 	movl   $0xf7c,0xf88(%rax)
    18b4:	0f 00 00 
    18b7:	49 8b 06             	mov    (%r14),%rax
    18ba:	c7 80 7c 0f 00 00 74 	movl   $0xf74,0xf7c(%rax)
    18c1:	0f 00 00 
    18c4:	49 8b 06             	mov    (%r14),%rax
    18c7:	c7 80 90 0f 00 00 84 	movl   $0xf84,0xf90(%rax)
    18ce:	0f 00 00 
    18d1:	49 8b 06             	mov    (%r14),%rax
    18d4:	c7 80 84 0f 00 00 7c 	movl   $0xf7c,0xf84(%rax)
    18db:	0f 00 00 
    18de:	49 8b 06             	mov    (%r14),%rax
    18e1:	c7 80 8c 0f 00 00 84 	movl   $0xf84,0xf8c(%rax)
    18e8:	0f 00 00 
    18eb:	49 8b 06             	mov    (%r14),%rax
    18ee:	c7 80 a0 0f 00 00 94 	movl   $0xf94,0xfa0(%rax)
    18f5:	0f 00 00 
    18f8:	49 8b 06             	mov    (%r14),%rax
    18fb:	c7 80 94 0f 00 00 8c 	movl   $0xf8c,0xf94(%rax)
    1902:	0f 00 00 
    1905:	49 8b 06             	mov    (%r14),%rax
    1908:	c7 80 98 0f 00 00 8c 	movl   $0xf8c,0xf98(%rax)
    190f:	0f 00 00 
    1912:	49 8b 06             	mov    (%r14),%rax
    1915:	c7 80 a8 0f 00 00 9c 	movl   $0xf9c,0xfa8(%rax)
    191c:	0f 00 00 
    191f:	49 8b 06             	mov    (%r14),%rax
    1922:	c7 80 9c 0f 00 00 94 	movl   $0xf94,0xf9c(%rax)
    1929:	0f 00 00 
    192c:	49 8b 06             	mov    (%r14),%rax
    192f:	c7 80 b0 0f 00 00 a4 	movl   $0xfa4,0xfb0(%rax)
    1936:	0f 00 00 
    1939:	49 8b 06             	mov    (%r14),%rax
    193c:	c7 80 a4 0f 00 00 9c 	movl   $0xf9c,0xfa4(%rax)
    1943:	0f 00 00 
    1946:	49 8b 06             	mov    (%r14),%rax
    1949:	c7 80 ac 0f 00 00 a4 	movl   $0xfa4,0xfac(%rax)
    1950:	0f 00 00 
    1953:	b8 08 00 00 00       	mov    $0x8,%eax
    1958:	44 29 c8             	sub    %r9d,%eax
    195b:	83 e0 0f             	and    $0xf,%eax
    195e:	41 8d 48 c8          	lea    -0x38(%r8),%ecx
    1962:	29 c1                	sub    %eax,%ecx
    1964:	44 01 c8             	add    %r9d,%eax
    1967:	89 ca                	mov    %ecx,%edx
    1969:	83 ca 01             	or     $0x1,%edx
    196c:	49 8b 36             	mov    (%r14),%rsi
    196f:	89 54 30 04          	mov    %edx,0x4(%rax,%rsi,1)
    1973:	49 8b 16             	mov    (%r14),%rdx
    1976:	8b b2 6c 10 00 00    	mov    0x106c(%rdx),%esi
    197c:	89 b2 a0 0e 00 00    	mov    %esi,0xea0(%rdx)
    1982:	49 8b 16             	mov    (%r14),%rdx
    1985:	89 8a 90 0e 00 00    	mov    %ecx,0xe90(%rdx)
    198b:	49 8b 0e             	mov    (%r14),%rcx
    198e:	89 81 9c 0e 00 00    	mov    %eax,0xe9c(%rcx)
    1994:	43 8d 04 01          	lea    (%r9,%r8,1),%eax
    1998:	83 c0 c8             	add    $0xffffffc8,%eax
    199b:	49 8b 0e             	mov    (%r14),%rcx
    199e:	c7 44 08 04 38 00 00 	movl   $0x38,0x4(%rax,%rcx,1)
    19a5:	00 
    19a6:	e9 96 03 00 00       	jmp    1d41 <aot_func#4+0x19c1>
    19ab:	48 8b 83 78 01 00 00 	mov    0x178(%rbx),%rax
    19b2:	c7 80 74 10 00 00 30 	movl   $0x30,0x1074(%rax)
    19b9:	00 00 00 
    19bc:	4c 8b 14 24          	mov    (%rsp),%r10
    19c0:	e9 c0 03 00 00       	jmp    1d85 <aot_func#4+0x1a05>
    19c5:	44 39 c8             	cmp    %r9d,%eax
    19c8:	73 6b                	jae    1a35 <aot_func#4+0x16b5>
    19ca:	39 f8                	cmp    %edi,%eax
    19cc:	72 67                	jb     1a35 <aot_func#4+0x16b5>
    19ce:	f6 44 0a 0c 08       	testb  $0x8,0xc(%rdx,%rcx,1)
    19d3:	75 60                	jne    1a35 <aot_func#4+0x16b5>
    19d5:	bf 08 00 00 00       	mov    $0x8,%edi
    19da:	29 c7                	sub    %eax,%edi
    19dc:	83 e7 0f             	and    $0xf,%edi
    19df:	44 01 c6             	add    %r8d,%esi
    19e2:	44 03 81 90 0e 00 00 	add    0xe90(%rcx),%r8d
    19e9:	44 89 c3             	mov    %r8d,%ebx
    19ec:	29 fb                	sub    %edi,%ebx
    19ee:	01 c7                	add    %eax,%edi
    19f0:	89 dd                	mov    %ebx,%ebp
    19f2:	83 cd 01             	or     $0x1,%ebp
    19f5:	89 6c 0f 04          	mov    %ebp,0x4(%rdi,%rcx,1)
    19f9:	49 8b 0e             	mov    (%r14),%rcx
    19fc:	89 74 11 04          	mov    %esi,0x4(%rcx,%rdx,1)
    1a00:	49 8b 0e             	mov    (%r14),%rcx
    1a03:	8b 91 6c 10 00 00    	mov    0x106c(%rcx),%edx
    1a09:	89 91 a0 0e 00 00    	mov    %edx,0xea0(%rcx)
    1a0f:	49 8b 0e             	mov    (%r14),%rcx
    1a12:	89 99 90 0e 00 00    	mov    %ebx,0xe90(%rcx)
    1a18:	49 8b 0e             	mov    (%r14),%rcx
    1a1b:	89 b9 9c 0e 00 00    	mov    %edi,0xe9c(%rcx)
    1a21:	41 01 c0             	add    %eax,%r8d
    1a24:	49 8b 06             	mov    (%r14),%rax
    1a27:	41 c7 44 00 04 38 00 	movl   $0x38,0x4(%r8,%rax,1)
    1a2e:	00 00 
    1a30:	e9 0c 03 00 00       	jmp    1d41 <aot_func#4+0x19c1>
    1a35:	44 3b 89 94 0e 00 00 	cmp    0xe94(%rcx),%r9d
    1a3c:	73 0a                	jae    1a48 <aot_func#4+0x16c8>
    1a3e:	44 89 89 94 0e 00 00 	mov    %r9d,0xe94(%rcx)
    1a45:	49 8b 0e             	mov    (%r14),%rcx
    1a48:	48 89 df             	mov    %rbx,%rdi
    1a4b:	43 8d 14 01          	lea    (%r9,%r8,1),%edx
    1a4f:	be 44 10 00 00       	mov    $0x1044,%esi
    1a54:	89 f6                	mov    %esi,%esi
    1a56:	39 14 31             	cmp    %edx,(%rcx,%rsi,1)
    1a59:	74 0a                	je     1a65 <aot_func#4+0x16e5>
    1a5b:	8b 74 0e 08          	mov    0x8(%rsi,%rcx,1),%esi
    1a5f:	85 f6                	test   %esi,%esi
    1a61:	75 f1                	jne    1a54 <aot_func#4+0x16d4>
    1a63:	eb 29                	jmp    1a8e <aot_func#4+0x170e>
    1a65:	f6 44 0e 0c 08       	testb  $0x8,0xc(%rsi,%rcx,1)
    1a6a:	75 22                	jne    1a8e <aot_func#4+0x170e>
    1a6c:	44 89 0c 31          	mov    %r9d,(%rcx,%rsi,1)
    1a70:	49 8b 06             	mov    (%r14),%rax
    1a73:	44 01 44 06 04       	add    %r8d,0x4(%rsi,%rax,1)
    1a78:	44 89 ce             	mov    %r9d,%esi
    1a7b:	44 89 e1             	mov    %r12d,%ecx
    1a7e:	4c 89 d3             	mov    %r10,%rbx
    1a81:	e8 00 00 00 00       	call   1a86 <aot_func#4+0x1706>
    1a86:	49 89 da             	mov    %rbx,%r10
    1a89:	e9 06 03 00 00       	jmp    1d94 <aot_func#4+0x1a14>
    1a8e:	ba 44 10 00 00       	mov    $0x1044,%edx
    1a93:	eb 0f                	jmp    1aa4 <aot_func#4+0x1724>
    1a95:	66 66 2e 0f 1f 84 00 	data16 cs nopw 0x0(%rax,%rax,1)
    1a9c:	00 00 00 00 
    1aa0:	8b 54 0e 08          	mov    0x8(%rsi,%rcx,1),%edx
    1aa4:	89 d6                	mov    %edx,%esi
    1aa6:	8b 14 31             	mov    (%rcx,%rsi,1),%edx
    1aa9:	39 c2                	cmp    %eax,%edx
    1aab:	77 f3                	ja     1aa0 <aot_func#4+0x1720>
    1aad:	03 54 0e 04          	add    0x4(%rsi,%rcx,1),%edx
    1ab1:	39 c2                	cmp    %eax,%edx
    1ab3:	76 eb                	jbe    1aa0 <aot_func#4+0x1720>
    1ab5:	bf 08 00 00 00       	mov    $0x8,%edi
    1aba:	44 29 cf             	sub    %r9d,%edi
    1abd:	83 e7 0f             	and    $0xf,%edi
    1ac0:	41 8d 58 c8          	lea    -0x38(%r8),%ebx
    1ac4:	29 fb                	sub    %edi,%ebx
    1ac6:	44 01 cf             	add    %r9d,%edi
    1ac9:	89 de                	mov    %ebx,%esi
    1acb:	83 ce 01             	or     $0x1,%esi
    1ace:	89 74 0f 04          	mov    %esi,0x4(%rdi,%rcx,1)
    1ad2:	43 8d 0c 01          	lea    (%r9,%r8,1),%ecx
    1ad6:	83 c1 c8             	add    $0xffffffc8,%ecx
    1ad9:	49 8b 36             	mov    (%r14),%rsi
    1adc:	c7 44 31 04 38 00 00 	movl   $0x38,0x4(%rcx,%rsi,1)
    1ae3:	00 
    1ae4:	b9 07 00 00 00       	mov    $0x7,%ecx
    1ae9:	29 d1                	sub    %edx,%ecx
    1aeb:	83 e1 0f             	and    $0xf,%ecx
    1aee:	8d 34 0a             	lea    (%rdx,%rcx,1),%esi
    1af1:	83 c6 c1             	add    $0xffffffc1,%esi
    1af4:	8d 48 10             	lea    0x10(%rax),%ecx
    1af7:	39 ce                	cmp    %ecx,%esi
    1af9:	0f 42 f0             	cmovb  %eax,%esi
    1afc:	49 8b 0e             	mov    (%r14),%rcx
    1aff:	c7 44 0e 04 23 00 00 	movl   $0x23,0x4(%rsi,%rcx,1)
    1b06:	00 
    1b07:	49 8b 0e             	mov    (%r14),%rcx
    1b0a:	8b a9 6c 10 00 00    	mov    0x106c(%rcx),%ebp
    1b10:	89 a9 a0 0e 00 00    	mov    %ebp,0xea0(%rcx)
    1b16:	49 8b 0e             	mov    (%r14),%rcx
    1b19:	89 99 90 0e 00 00    	mov    %ebx,0xe90(%rcx)
    1b1f:	49 8b 0e             	mov    (%r14),%rcx
    1b22:	89 b9 9c 0e 00 00    	mov    %edi,0xe9c(%rcx)
    1b28:	8d 4e 10             	lea    0x10(%rsi),%ecx
    1b2b:	49 8b 3e             	mov    (%r14),%rdi
    1b2e:	48 8b af 4c 10 00 00 	mov    0x104c(%rdi),%rbp
    1b35:	48 89 2c 0f          	mov    %rbp,(%rdi,%rcx,1)
    1b39:	49 8b 0e             	mov    (%r14),%rcx
    1b3c:	48 8b b9 44 10 00 00 	mov    0x1044(%rcx),%rdi
    1b43:	48 89 7c 0e 08       	mov    %rdi,0x8(%rsi,%rcx,1)
    1b48:	8d 4e 08             	lea    0x8(%rsi),%ecx
    1b4b:	49 8b 3e             	mov    (%r14),%rdi
    1b4e:	89 8f 4c 10 00 00    	mov    %ecx,0x104c(%rdi)
    1b54:	49 8b 0e             	mov    (%r14),%rcx
    1b57:	44 89 81 48 10 00 00 	mov    %r8d,0x1048(%rcx)
    1b5e:	49 8b 0e             	mov    (%r14),%rcx
    1b61:	44 89 89 44 10 00 00 	mov    %r9d,0x1044(%rcx)
    1b68:	49 8b 0e             	mov    (%r14),%rcx
    1b6b:	c7 81 50 10 00 00 00 	movl   $0x0,0x1050(%rcx)
    1b72:	00 00 00 
    1b75:	89 f1                	mov    %esi,%ecx
    1b77:	83 c1 24             	add    $0x24,%ecx
    1b7a:	49 8b 3e             	mov    (%r14),%rdi
    1b7d:	89 cd                	mov    %ecx,%ebp
    1b7f:	c7 04 2f 07 00 00 00 	movl   $0x7,(%rdi,%rbp,1)
    1b86:	83 c1 04             	add    $0x4,%ecx
    1b89:	39 d1                	cmp    %edx,%ecx
    1b8b:	72 ed                	jb     1b7a <aot_func#4+0x17fa>
    1b8d:	39 c6                	cmp    %eax,%esi
    1b8f:	0f 84 ac 01 00 00    	je     1d41 <aot_func#4+0x19c1>
    1b95:	49 8b 0e             	mov    (%r14),%rcx
    1b98:	83 64 31 04 fe       	andl   $0xfffffffe,0x4(%rcx,%rsi,1)
    1b9d:	41 89 f1             	mov    %esi,%r9d
    1ba0:	41 29 c1             	sub    %eax,%r9d
    1ba3:	49 8b 16             	mov    (%r14),%rdx
    1ba6:	44 89 0c 32          	mov    %r9d,(%rdx,%rsi,1)
    1baa:	44 89 ca             	mov    %r9d,%edx
    1bad:	83 ca 01             	or     $0x1,%edx
    1bb0:	49 8b 36             	mov    (%r14),%rsi
    1bb3:	89 54 30 04          	mov    %edx,0x4(%rax,%rsi,1)
    1bb7:	41 81 f9 ff 00 00 00 	cmp    $0xff,%r9d
    1bbe:	0f 86 b2 00 00 00    	jbe    1c76 <aot_func#4+0x18f6>
    1bc4:	ba 1f 00 00 00       	mov    $0x1f,%edx
    1bc9:	41 81 f9 ff ff ff 00 	cmp    $0xffffff,%r9d
    1bd0:	77 1e                	ja     1bf0 <aot_func#4+0x1870>
    1bd2:	44 89 ca             	mov    %r9d,%edx
    1bd5:	c1 ea 08             	shr    $0x8,%edx
    1bd8:	f3 0f bd f2          	lzcnt  %edx,%esi
    1bdc:	bf 06 00 00 00       	mov    $0x6,%edi
    1be1:	29 f7                	sub    %esi,%edi
    1be3:	01 f6                	add    %esi,%esi
    1be5:	31 d2                	xor    %edx,%edx
    1be7:	41 0f a3 f9          	bt     %edi,%r9d
    1beb:	83 d2 3e             	adc    $0x3e,%edx
    1bee:	29 f2                	sub    %esi,%edx
    1bf0:	49 8b 36             	mov    (%r14),%rsi
    1bf3:	89 54 30 1c          	mov    %edx,0x1c(%rax,%rsi,1)
    1bf7:	49 8b 36             	mov    (%r14),%rsi
    1bfa:	48 c7 44 30 10 00 00 	movq   $0x0,0x10(%rax,%rsi,1)
    1c01:	00 00 
    1c03:	8d 3c 95 b4 0f 00 00 	lea    0xfb4(,%rdx,4),%edi
    1c0a:	49 8b 36             	mov    (%r14),%rsi
    1c0d:	8b ae 88 0e 00 00    	mov    0xe88(%rsi),%ebp
    1c13:	0f a3 d5             	bt     %edx,%ebp
    1c16:	0f 83 89 00 00 00    	jae    1ca5 <aot_func#4+0x1925>
    1c1c:	41 89 d0             	mov    %edx,%r8d
    1c1f:	41 d0 e8             	shr    $1,%r8b
    1c22:	b3 19                	mov    $0x19,%bl
    1c24:	44 28 c3             	sub    %r8b,%bl
    1c27:	80 e3 1f             	and    $0x1f,%bl
    1c2a:	31 ed                	xor    %ebp,%ebp
    1c2c:	83 fa 1f             	cmp    $0x1f,%edx
    1c2f:	0f b6 d3             	movzbl %bl,%edx
    1c32:	0f 44 d5             	cmove  %ebp,%edx
    1c35:	c4 c2 69 f7 d9       	shlx   %edx,%r9d,%ebx
    1c3a:	89 fa                	mov    %edi,%edx
    1c3c:	8b 3c 16             	mov    (%rsi,%rdx,1),%edi
    1c3f:	89 fa                	mov    %edi,%edx
    1c41:	89 ff                	mov    %edi,%edi
    1c43:	8b 6c 37 04          	mov    0x4(%rdi,%rsi,1),%ebp
    1c47:	83 e5 f8             	and    $0xfffffff8,%ebp
    1c4a:	44 39 cd             	cmp    %r9d,%ebp
    1c4d:	0f 84 bb 00 00 00    	je     1d0e <aot_func#4+0x198e>
    1c53:	8d 0c 1b             	lea    (%rbx,%rbx,1),%ecx
    1c56:	c1 eb 1f             	shr    $0x1f,%ebx
    1c59:	8d 2c 9a             	lea    (%rdx,%rbx,4),%ebp
    1c5c:	83 c5 10             	add    $0x10,%ebp
    1c5f:	8b 3c 2e             	mov    (%rsi,%rbp,1),%edi
    1c62:	89 cb                	mov    %ecx,%ebx
    1c64:	85 ff                	test   %edi,%edi
    1c66:	75 d7                	jne    1c3f <aot_func#4+0x18bf>
    1c68:	89 e9                	mov    %ebp,%ecx
    1c6a:	89 04 0e             	mov    %eax,(%rsi,%rcx,1)
    1c6d:	49 8b 0e             	mov    (%r14),%rcx
    1c70:	89 54 08 18          	mov    %edx,0x18(%rax,%rcx,1)
    1c74:	eb 50                	jmp    1cc6 <aot_func#4+0x1946>
    1c76:	44 89 cf             	mov    %r9d,%edi
    1c79:	83 e7 f8             	and    $0xfffffff8,%edi
    1c7c:	8d b7 ac 0e 00 00    	lea    0xeac(%rdi),%esi
    1c82:	49 8b 1e             	mov    (%r14),%rbx
    1c85:	8b 93 84 0e 00 00    	mov    0xe84(%rbx),%edx
    1c8b:	41 c1 e9 03          	shr    $0x3,%r9d
    1c8f:	44 0f a3 ca          	bt     %r9d,%edx
    1c93:	73 41                	jae    1cd6 <aot_func#4+0x1956>
    1c95:	8b 94 3b b4 0e 00 00 	mov    0xeb4(%rbx,%rdi,1),%edx
    1c9c:	48 81 c7 b4 0e 00 00 	add    $0xeb4,%rdi
    1ca3:	eb 51                	jmp    1cf6 <aot_func#4+0x1976>
    1ca5:	b9 01 00 00 00       	mov    $0x1,%ecx
    1caa:	c4 e2 69 f7 c9       	shlx   %edx,%ecx,%ecx
    1caf:	89 fa                	mov    %edi,%edx
    1cb1:	89 04 16             	mov    %eax,(%rsi,%rdx,1)
    1cb4:	09 cd                	or     %ecx,%ebp
    1cb6:	49 8b 0e             	mov    (%r14),%rcx
    1cb9:	89 a9 88 0e 00 00    	mov    %ebp,0xe88(%rcx)
    1cbf:	49 8b 0e             	mov    (%r14),%rcx
    1cc2:	89 7c 08 18          	mov    %edi,0x18(%rax,%rcx,1)
    1cc6:	bf 0c 00 00 00       	mov    $0xc,%edi
    1ccb:	b9 08 00 00 00       	mov    $0x8,%ecx
    1cd0:	89 c2                	mov    %eax,%edx
    1cd2:	89 c6                	mov    %eax,%esi
    1cd4:	eb 5a                	jmp    1d30 <aot_func#4+0x19b0>
    1cd6:	bd 01 00 00 00       	mov    $0x1,%ebp
    1cdb:	c4 e2 31 f7 cd       	shlx   %r9d,%ebp,%ecx
    1ce0:	09 ca                	or     %ecx,%edx
    1ce2:	89 93 84 0e 00 00    	mov    %edx,0xe84(%rbx)
    1ce8:	49 8b 1e             	mov    (%r14),%rbx
    1ceb:	89 ff                	mov    %edi,%edi
    1ced:	48 81 c7 b4 0e 00 00 	add    $0xeb4,%rdi
    1cf4:	89 f2                	mov    %esi,%edx
    1cf6:	89 d1                	mov    %edx,%ecx
    1cf8:	89 44 19 0c          	mov    %eax,0xc(%rcx,%rbx,1)
    1cfc:	49 8b 0e             	mov    (%r14),%rcx
    1cff:	89 04 39             	mov    %eax,(%rcx,%rdi,1)
    1d02:	bf 08 00 00 00       	mov    $0x8,%edi
    1d07:	b9 0c 00 00 00       	mov    $0xc,%ecx
    1d0c:	eb 22                	jmp    1d30 <aot_func#4+0x19b0>
    1d0e:	8b 4c 37 08          	mov    0x8(%rdi,%rsi,1),%ecx
    1d12:	89 44 37 08          	mov    %eax,0x8(%rdi,%rsi,1)
    1d16:	49 8b 36             	mov    (%r14),%rsi
    1d19:	89 44 31 0c          	mov    %eax,0xc(%rcx,%rsi,1)
    1d1d:	49 8b 36             	mov    (%r14),%rsi
    1d20:	89 4c 30 08          	mov    %ecx,0x8(%rax,%rsi,1)
    1d24:	bf 0c 00 00 00       	mov    $0xc,%edi
    1d29:	b9 18 00 00 00       	mov    $0x18,%ecx
    1d2e:	31 f6                	xor    %esi,%esi
    1d30:	01 c7                	add    %eax,%edi
    1d32:	49 8b 2e             	mov    (%r14),%rbp
    1d35:	89 54 3d 00          	mov    %edx,0x0(%rbp,%rdi,1)
    1d39:	01 c1                	add    %eax,%ecx
    1d3b:	49 8b 06             	mov    (%r14),%rax
    1d3e:	89 34 08             	mov    %esi,(%rax,%rcx,1)
    1d41:	49 8b 0e             	mov    (%r14),%rcx
    1d44:	8b 81 90 0e 00 00    	mov    0xe90(%rcx),%eax
    1d4a:	44 29 e0             	sub    %r12d,%eax
    1d4d:	76 36                	jbe    1d85 <aot_func#4+0x1a05>
    1d4f:	8b 91 9c 0e 00 00    	mov    0xe9c(%rcx),%edx
    1d55:	42 8d 34 22          	lea    (%rdx,%r12,1),%esi
    1d59:	89 c7                	mov    %eax,%edi
    1d5b:	83 cf 01             	or     $0x1,%edi
    1d5e:	89 7c 0e 04          	mov    %edi,0x4(%rsi,%rcx,1)
    1d62:	49 8b 0e             	mov    (%r14),%rcx
    1d65:	89 81 90 0e 00 00    	mov    %eax,0xe90(%rcx)
    1d6b:	49 8b 06             	mov    (%r14),%rax
    1d6e:	89 b0 9c 0e 00 00    	mov    %esi,0xe9c(%rax)
    1d74:	41 83 cc 03          	or     $0x3,%r12d
    1d78:	49 8b 06             	mov    (%r14),%rax
    1d7b:	44 89 64 02 04       	mov    %r12d,0x4(%rdx,%rax,1)
    1d80:	8d 42 08             	lea    0x8(%rdx),%eax
    1d83:	eb 0f                	jmp    1d94 <aot_func#4+0x1a14>
    1d85:	49 8b 06             	mov    (%r14),%rax
    1d88:	c7 80 74 10 00 00 30 	movl   $0x30,0x1074(%rax)
    1d8f:	00 00 00 
    1d92:	31 c0                	xor    %eax,%eax
    1d94:	45 89 97 d0 01 00 00 	mov    %r10d,0x1d0(%r15)
    1d9b:	48 83 c4 18          	add    $0x18,%rsp
    1d9f:	5b                   	pop    %rbx
    1da0:	41 5c                	pop    %r12
    1da2:	41 5d                	pop    %r13
    1da4:	41 5e                	pop    %r14
    1da6:	41 5f                	pop    %r15
    1da8:	5d                   	pop    %rbp
    1da9:	c3                   	ret
    1daa:	66 0f 1f 44 00 00    	nopw   0x0(%rax,%rax,1)

0000000000001db0 <aot_func#5>:
    1db0:	55                   	push   %rbp
    1db1:	41 57                	push   %r15
    1db3:	41 56                	push   %r14
    1db5:	53                   	push   %rbx
    1db6:	48 8b 47 10          	mov    0x10(%rdi),%rax
    1dba:	4c 8b 80 78 01 00 00 	mov    0x178(%rax),%r8
    1dc1:	bf 08 00 00 00       	mov    $0x8,%edi
    1dc6:	b8 08 00 00 00       	mov    $0x8,%eax
    1dcb:	29 f0                	sub    %esi,%eax
    1dcd:	83 e0 0f             	and    $0xf,%eax
    1dd0:	01 f0                	add    %esi,%eax
    1dd2:	44 8d 1c 08          	lea    (%rax,%rcx,1),%r11d
    1dd6:	83 c9 03             	or     $0x3,%ecx
    1dd9:	42 89 4c 00 04       	mov    %ecx,0x4(%rax,%r8,1)
    1dde:	29 d7                	sub    %edx,%edi
    1de0:	83 e7 0f             	and    $0xf,%edi
    1de3:	01 d7                	add    %edx,%edi
    1de5:	41 89 ff             	mov    %edi,%r15d
    1de8:	45 29 df             	sub    %r11d,%r15d
    1deb:	41 3b b8 9c 0e 00 00 	cmp    0xe9c(%r8),%edi
    1df2:	75 28                	jne    1e1c <aot_func#5+0x6c>
    1df4:	45 89 98 9c 0e 00 00 	mov    %r11d,0xe9c(%r8)
    1dfb:	45 03 b8 90 0e 00 00 	add    0xe90(%r8),%r15d
    1e02:	45 89 b8 90 0e 00 00 	mov    %r15d,0xe90(%r8)
    1e09:	41 83 cf 01          	or     $0x1,%r15d
    1e0d:	44 89 df             	mov    %r11d,%edi
    1e10:	48 83 c7 04          	add    $0x4,%rdi
    1e14:	45 89 fb             	mov    %r15d,%r11d
    1e17:	e9 2b 03 00 00       	jmp    2147 <aot_func#5+0x397>
    1e1c:	41 3b b8 98 0e 00 00 	cmp    0xe98(%r8),%edi
    1e23:	75 30                	jne    1e55 <aot_func#5+0xa5>
    1e25:	45 89 98 98 0e 00 00 	mov    %r11d,0xe98(%r8)
    1e2c:	41 8b 88 8c 0e 00 00 	mov    0xe8c(%r8),%ecx
    1e33:	41 01 cf             	add    %ecx,%r15d
    1e36:	45 89 b8 8c 0e 00 00 	mov    %r15d,0xe8c(%r8)
    1e3d:	44 89 fa             	mov    %r15d,%edx
    1e40:	83 ca 01             	or     $0x1,%edx
    1e43:	44 89 de             	mov    %r11d,%esi
    1e46:	42 89 54 06 04       	mov    %edx,0x4(%rsi,%r8,1)
    1e4b:	01 cf                	add    %ecx,%edi
    1e4d:	45 89 fb             	mov    %r15d,%r11d
    1e50:	e9 f2 02 00 00       	jmp    2147 <aot_func#5+0x397>
    1e55:	41 89 fa             	mov    %edi,%r10d
    1e58:	43 8b 4c 10 04       	mov    0x4(%r8,%r10,1),%ecx
    1e5d:	89 ca                	mov    %ecx,%edx
    1e5f:	83 e2 03             	and    $0x3,%edx
    1e62:	83 fa 01             	cmp    $0x1,%edx
    1e65:	75 79                	jne    1ee0 <aot_func#5+0x130>
    1e67:	41 89 c9             	mov    %ecx,%r9d
    1e6a:	41 83 e1 f8          	and    $0xfffffff8,%r9d
    1e6e:	43 8b 74 02 0c       	mov    0xc(%r10,%r8,1),%esi
    1e73:	81 f9 ff 00 00 00    	cmp    $0xff,%ecx
    1e79:	76 71                	jbe    1eec <aot_func#5+0x13c>
    1e7b:	47 8b 74 02 18       	mov    0x18(%r10,%r8,1),%r14d
    1e80:	39 fe                	cmp    %edi,%esi
    1e82:	0f 85 83 00 00 00    	jne    1f0b <aot_func#5+0x15b>
    1e88:	43 8b 6c 02 14       	mov    0x14(%r10,%r8,1),%ebp
    1e8d:	b9 14 00 00 00       	mov    $0x14,%ecx
    1e92:	85 ed                	test   %ebp,%ebp
    1e94:	75 12                	jne    1ea8 <aot_func#5+0xf8>
    1e96:	43 8b 6c 02 10       	mov    0x10(%r10,%r8,1),%ebp
    1e9b:	b9 10 00 00 00       	mov    $0x10,%ecx
    1ea0:	85 ed                	test   %ebp,%ebp
    1ea2:	0f 84 ad 02 00 00    	je     2155 <aot_func#5+0x3a5>
    1ea8:	01 f9                	add    %edi,%ecx
    1eaa:	66 0f 1f 44 00 00    	nopw   0x0(%rax,%rax,1)
    1eb0:	89 cb                	mov    %ecx,%ebx
    1eb2:	89 ee                	mov    %ebp,%esi
    1eb4:	8d 4e 14             	lea    0x14(%rsi),%ecx
    1eb7:	89 ea                	mov    %ebp,%edx
    1eb9:	42 8b 6c 02 14       	mov    0x14(%rdx,%r8,1),%ebp
    1ebe:	85 ed                	test   %ebp,%ebp
    1ec0:	75 ee                	jne    1eb0 <aot_func#5+0x100>
    1ec2:	8d 4e 10             	lea    0x10(%rsi),%ecx
    1ec5:	42 8b 6c 02 10       	mov    0x10(%rdx,%r8,1),%ebp
    1eca:	85 ed                	test   %ebp,%ebp
    1ecc:	75 e2                	jne    1eb0 <aot_func#5+0x100>
    1ece:	89 db                	mov    %ebx,%ebx
    1ed0:	31 c9                	xor    %ecx,%ecx
    1ed2:	41 89 0c 18          	mov    %ecx,(%r8,%rbx,1)
    1ed6:	45 85 f6             	test   %r14d,%r14d
    1ed9:	75 47                	jne    1f22 <aot_func#5+0x172>
    1edb:	e9 c0 00 00 00       	jmp    1fa0 <aot_func#5+0x1f0>
    1ee0:	49 83 c2 04          	add    $0x4,%r10
    1ee4:	4c 89 d7             	mov    %r10,%rdi
    1ee7:	e9 c3 00 00 00       	jmp    1faf <aot_func#5+0x1ff>
    1eec:	43 8b 54 02 08       	mov    0x8(%r10,%r8,1),%edx
    1ef1:	39 d6                	cmp    %edx,%esi
    1ef3:	75 57                	jne    1f4c <aot_func#5+0x19c>
    1ef5:	c0 e9 03             	shr    $0x3,%cl
    1ef8:	ba fe ff ff ff       	mov    $0xfffffffe,%edx
    1efd:	d3 c2                	rol    %cl,%edx
    1eff:	41 21 90 84 0e 00 00 	and    %edx,0xe84(%r8)
    1f06:	e9 95 00 00 00       	jmp    1fa0 <aot_func#5+0x1f0>
    1f0b:	43 8b 4c 02 08       	mov    0x8(%r10,%r8,1),%ecx
    1f10:	42 89 74 01 0c       	mov    %esi,0xc(%rcx,%r8,1)
    1f15:	48 8d 5e 08          	lea    0x8(%rsi),%rbx
    1f19:	41 89 0c 18          	mov    %ecx,(%r8,%rbx,1)
    1f1d:	45 85 f6             	test   %r14d,%r14d
    1f20:	74 7e                	je     1fa0 <aot_func#5+0x1f0>
    1f22:	43 8b 4c 02 1c       	mov    0x1c(%r10,%r8,1),%ecx
    1f27:	8d 14 8d b4 0f 00 00 	lea    0xfb4(,%rcx,4),%edx
    1f2e:	41 3b 3c 10          	cmp    (%r8,%rdx,1),%edi
    1f32:	75 24                	jne    1f58 <aot_func#5+0x1a8>
    1f34:	41 89 34 10          	mov    %esi,(%r8,%rdx,1)
    1f38:	85 f6                	test   %esi,%esi
    1f3a:	75 35                	jne    1f71 <aot_func#5+0x1c1>
    1f3c:	ba fe ff ff ff       	mov    $0xfffffffe,%edx
    1f41:	d3 c2                	rol    %cl,%edx
    1f43:	41 21 90 88 0e 00 00 	and    %edx,0xe88(%r8)
    1f4a:	eb 54                	jmp    1fa0 <aot_func#5+0x1f0>
    1f4c:	42 89 54 06 08       	mov    %edx,0x8(%rsi,%r8,1)
    1f51:	42 89 74 02 0c       	mov    %esi,0xc(%rdx,%r8,1)
    1f56:	eb 48                	jmp    1fa0 <aot_func#5+0x1f0>
    1f58:	31 c9                	xor    %ecx,%ecx
    1f5a:	43 39 7c 06 10       	cmp    %edi,0x10(%r14,%r8,1)
    1f5f:	0f 95 c1             	setne  %cl
    1f62:	41 8d 0c 8e          	lea    (%r14,%rcx,4),%ecx
    1f66:	83 c1 10             	add    $0x10,%ecx
    1f69:	41 89 34 08          	mov    %esi,(%r8,%rcx,1)
    1f6d:	85 f6                	test   %esi,%esi
    1f6f:	74 2f                	je     1fa0 <aot_func#5+0x1f0>
    1f71:	89 f1                	mov    %esi,%ecx
    1f73:	46 89 74 01 18       	mov    %r14d,0x18(%rcx,%r8,1)
    1f78:	43 8b 54 02 10       	mov    0x10(%r10,%r8,1),%edx
    1f7d:	48 85 d2             	test   %rdx,%rdx
    1f80:	74 0a                	je     1f8c <aot_func#5+0x1dc>
    1f82:	42 89 54 01 10       	mov    %edx,0x10(%rcx,%r8,1)
    1f87:	42 89 74 02 18       	mov    %esi,0x18(%rdx,%r8,1)
    1f8c:	43 8b 54 02 14       	mov    0x14(%r10,%r8,1),%edx
    1f91:	48 85 d2             	test   %rdx,%rdx
    1f94:	74 0a                	je     1fa0 <aot_func#5+0x1f0>
    1f96:	42 89 54 01 14       	mov    %edx,0x14(%rcx,%r8,1)
    1f9b:	42 89 74 02 18       	mov    %esi,0x18(%rdx,%r8,1)
    1fa0:	45 01 cf             	add    %r9d,%r15d
    1fa3:	44 01 cf             	add    %r9d,%edi
    1fa6:	41 8b 4c 38 04       	mov    0x4(%r8,%rdi,1),%ecx
    1fab:	48 83 c7 04          	add    $0x4,%rdi
    1faf:	83 e1 fe             	and    $0xfffffffe,%ecx
    1fb2:	41 89 0c 38          	mov    %ecx,(%r8,%rdi,1)
    1fb6:	43 8d 0c 1f          	lea    (%r15,%r11,1),%ecx
    1fba:	45 89 3c 08          	mov    %r15d,(%r8,%rcx,1)
    1fbe:	44 89 f9             	mov    %r15d,%ecx
    1fc1:	83 c9 01             	or     $0x1,%ecx
    1fc4:	44 89 df             	mov    %r11d,%edi
    1fc7:	42 89 4c 07 04       	mov    %ecx,0x4(%rdi,%r8,1)
    1fcc:	41 81 ff ff 00 00 00 	cmp    $0xff,%r15d
    1fd3:	0f 86 bc 00 00 00    	jbe    2095 <aot_func#5+0x2e5>
    1fd9:	b9 1f 00 00 00       	mov    $0x1f,%ecx
    1fde:	41 81 ff ff ff ff 00 	cmp    $0xffffff,%r15d
    1fe5:	77 1e                	ja     2005 <aot_func#5+0x255>
    1fe7:	44 89 f9             	mov    %r15d,%ecx
    1fea:	c1 e9 08             	shr    $0x8,%ecx
    1fed:	f3 0f bd d1          	lzcnt  %ecx,%edx
    1ff1:	be 06 00 00 00       	mov    $0x6,%esi
    1ff6:	29 d6                	sub    %edx,%esi
    1ff8:	01 d2                	add    %edx,%edx
    1ffa:	31 c9                	xor    %ecx,%ecx
    1ffc:	41 0f a3 f7          	bt     %esi,%r15d
    2000:	83 d1 3e             	adc    $0x3e,%ecx
    2003:	29 d1                	sub    %edx,%ecx
    2005:	42 89 4c 07 1c       	mov    %ecx,0x1c(%rdi,%r8,1)
    200a:	4a c7 44 07 10 00 00 	movq   $0x0,0x10(%rdi,%r8,1)
    2011:	00 00 
    2013:	8d 34 8d b4 0f 00 00 	lea    0xfb4(,%rcx,4),%esi
    201a:	41 8b a8 88 0e 00 00 	mov    0xe88(%r8),%ebp
    2021:	0f a3 cd             	bt     %ecx,%ebp
    2024:	0f 83 99 00 00 00    	jae    20c3 <aot_func#5+0x313>
    202a:	89 ca                	mov    %ecx,%edx
    202c:	d0 ea                	shr    $1,%dl
    202e:	b3 19                	mov    $0x19,%bl
    2030:	28 d3                	sub    %dl,%bl
    2032:	80 e3 1f             	and    $0x1f,%bl
    2035:	31 d2                	xor    %edx,%edx
    2037:	83 f9 1f             	cmp    $0x1f,%ecx
    203a:	0f b6 cb             	movzbl %bl,%ecx
    203d:	0f 44 ca             	cmove  %edx,%ecx
    2040:	c4 c2 71 f7 ef       	shlx   %ecx,%r15d,%ebp
    2045:	89 f1                	mov    %esi,%ecx
    2047:	41 8b 14 08          	mov    (%r8,%rcx,1),%edx
    204b:	0f 1f 44 00 00       	nopl   0x0(%rax,%rax,1)
    2050:	89 d1                	mov    %edx,%ecx
    2052:	89 d6                	mov    %edx,%esi
    2054:	42 8b 54 06 04       	mov    0x4(%rsi,%r8,1),%edx
    2059:	83 e2 f8             	and    $0xfffffff8,%edx
    205c:	44 39 fa             	cmp    %r15d,%edx
    205f:	0f 84 be 00 00 00    	je     2123 <aot_func#5+0x373>
    2065:	8d 5c 2d 00          	lea    0x0(%rbp,%rbp,1),%ebx
    2069:	c1 ed 1f             	shr    $0x1f,%ebp
    206c:	8d 34 a9             	lea    (%rcx,%rbp,4),%esi
    206f:	83 c6 10             	add    $0x10,%esi
    2072:	41 8b 14 30          	mov    (%r8,%rsi,1),%edx
    2076:	89 dd                	mov    %ebx,%ebp
    2078:	85 d2                	test   %edx,%edx
    207a:	75 d4                	jne    2050 <aot_func#5+0x2a0>
    207c:	89 f2                	mov    %esi,%edx
    207e:	45 89 1c 10          	mov    %r11d,(%r8,%rdx,1)
    2082:	42 89 4c 07 18       	mov    %ecx,0x18(%rdi,%r8,1)
    2087:	46 89 5c 07 0c       	mov    %r11d,0xc(%rdi,%r8,1)
    208c:	48 83 c7 08          	add    $0x8,%rdi
    2090:	e9 b2 00 00 00       	jmp    2147 <aot_func#5+0x397>
    2095:	44 89 f9             	mov    %r15d,%ecx
    2098:	83 e1 f8             	and    $0xfffffff8,%ecx
    209b:	8d b1 ac 0e 00 00    	lea    0xeac(%rcx),%esi
    20a1:	41 8b a8 84 0e 00 00 	mov    0xe84(%r8),%ebp
    20a8:	41 c1 ef 03          	shr    $0x3,%r15d
    20ac:	44 0f a3 fd          	bt     %r15d,%ebp
    20b0:	73 3a                	jae    20ec <aot_func#5+0x33c>
    20b2:	41 8b 94 08 b4 0e 00 	mov    0xeb4(%r8,%rcx,1),%edx
    20b9:	00 
    20ba:	48 81 c1 b4 0e 00 00 	add    $0xeb4,%rcx
    20c1:	eb 47                	jmp    210a <aot_func#5+0x35a>
    20c3:	ba 01 00 00 00       	mov    $0x1,%edx
    20c8:	c4 e2 71 f7 ca       	shlx   %ecx,%edx,%ecx
    20cd:	89 f2                	mov    %esi,%edx
    20cf:	45 89 1c 10          	mov    %r11d,(%r8,%rdx,1)
    20d3:	09 cd                	or     %ecx,%ebp
    20d5:	41 89 a8 88 0e 00 00 	mov    %ebp,0xe88(%r8)
    20dc:	42 89 74 07 18       	mov    %esi,0x18(%rdi,%r8,1)
    20e1:	46 89 5c 07 08       	mov    %r11d,0x8(%rdi,%r8,1)
    20e6:	48 83 c7 0c          	add    $0xc,%rdi
    20ea:	eb 5b                	jmp    2147 <aot_func#5+0x397>
    20ec:	ba 01 00 00 00       	mov    $0x1,%edx
    20f1:	c4 e2 01 f7 d2       	shlx   %r15d,%edx,%edx
    20f6:	09 d5                	or     %edx,%ebp
    20f8:	41 89 a8 84 0e 00 00 	mov    %ebp,0xe84(%r8)
    20ff:	89 c9                	mov    %ecx,%ecx
    2101:	48 81 c1 b4 0e 00 00 	add    $0xeb4,%rcx
    2108:	89 f2                	mov    %esi,%edx
    210a:	89 d5                	mov    %edx,%ebp
    210c:	46 89 5c 05 0c       	mov    %r11d,0xc(%rbp,%r8,1)
    2111:	45 89 1c 08          	mov    %r11d,(%r8,%rcx,1)
    2115:	42 89 74 07 0c       	mov    %esi,0xc(%rdi,%r8,1)
    211a:	48 83 c7 08          	add    $0x8,%rdi
    211e:	41 89 d3             	mov    %edx,%r11d
    2121:	eb 24                	jmp    2147 <aot_func#5+0x397>
    2123:	42 8b 54 06 08       	mov    0x8(%rsi,%r8,1),%edx
    2128:	46 89 5c 02 0c       	mov    %r11d,0xc(%rdx,%r8,1)
    212d:	46 89 5c 06 08       	mov    %r11d,0x8(%rsi,%r8,1)
    2132:	42 c7 44 07 18 00 00 	movl   $0x0,0x18(%rdi,%r8,1)
    2139:	00 00 
    213b:	42 89 4c 07 0c       	mov    %ecx,0xc(%rdi,%r8,1)
    2140:	48 83 c7 08          	add    $0x8,%rdi
    2144:	41 89 d3             	mov    %edx,%r11d
    2147:	45 89 1c 38          	mov    %r11d,(%r8,%rdi,1)
    214b:	83 c0 08             	add    $0x8,%eax
    214e:	5b                   	pop    %rbx
    214f:	41 5e                	pop    %r14
    2151:	41 5f                	pop    %r15
    2153:	5d                   	pop    %rbp
    2154:	c3                   	ret
    2155:	31 f6                	xor    %esi,%esi
    2157:	45 85 f6             	test   %r14d,%r14d
    215a:	0f 85 c2 fd ff ff    	jne    1f22 <aot_func#5+0x172>
    2160:	e9 3b fe ff ff       	jmp    1fa0 <aot_func#5+0x1f0>
    2165:	66 66 2e 0f 1f 84 00 	data16 cs nopw 0x0(%rax,%rax,1)
    216c:	00 00 00 00 

0000000000002170 <aot_func#6>:
    2170:	e9 00 00 00 00       	jmp    2175 <aot_func#6+0x5>
    2175:	66 66 2e 0f 1f 84 00 	data16 cs nopw 0x0(%rax,%rax,1)
    217c:	00 00 00 00 

0000000000002180 <aot_func#7>:
    2180:	41 56                	push   %r14
    2182:	53                   	push   %rbx
    2183:	85 f6                	test   %esi,%esi
    2185:	0f 84 4f 04 00 00    	je     25da <aot_func#7+0x45a>
    218b:	48 8b 47 10          	mov    0x10(%rdi),%rax
    218f:	48 8b 80 78 01 00 00 	mov    0x178(%rax),%rax
    2196:	44 8d 4e f8          	lea    -0x8(%rsi),%r9d
    219a:	8d 4e fc             	lea    -0x4(%rsi),%ecx
    219d:	8b 0c 08             	mov    (%rax,%rcx,1),%ecx
    21a0:	41 89 ce             	mov    %ecx,%r14d
    21a3:	41 83 e6 f8          	and    $0xfffffff8,%r14d
    21a7:	45 8d 1c 36          	lea    (%r14,%rsi,1),%r11d
    21ab:	41 83 c3 f8          	add    $0xfffffff8,%r11d
    21af:	f6 c1 01             	test   $0x1,%cl
    21b2:	0f 85 7d 01 00 00    	jne    2335 <aot_func#7+0x1b5>
    21b8:	f6 c1 02             	test   $0x2,%cl
    21bb:	0f 84 19 04 00 00    	je     25da <aot_func#7+0x45a>
    21c1:	44 89 c9             	mov    %r9d,%ecx
    21c4:	8b 0c 08             	mov    (%rax,%rcx,1),%ecx
    21c7:	41 29 c9             	sub    %ecx,%r9d
    21ca:	44 3b 88 94 0e 00 00 	cmp    0xe94(%rax),%r9d
    21d1:	0f 82 03 04 00 00    	jb     25da <aot_func#7+0x45a>
    21d7:	41 01 ce             	add    %ecx,%r14d
    21da:	44 3b 88 98 0e 00 00 	cmp    0xe98(%rax),%r9d
    21e1:	75 37                	jne    221a <aot_func#7+0x9a>
    21e3:	44 89 d9             	mov    %r11d,%ecx
    21e6:	8b 54 01 04          	mov    0x4(%rcx,%rax,1),%edx
    21ea:	89 d6                	mov    %edx,%esi
    21ec:	f7 d6                	not    %esi
    21ee:	40 f6 c6 03          	test   $0x3,%sil
    21f2:	0f 85 3d 01 00 00    	jne    2335 <aot_func#7+0x1b5>
    21f8:	83 e2 fe             	and    $0xfffffffe,%edx
    21fb:	89 54 08 04          	mov    %edx,0x4(%rax,%rcx,1)
    21ff:	44 89 b0 8c 0e 00 00 	mov    %r14d,0xe8c(%rax)
    2206:	44 89 34 08          	mov    %r14d,(%rax,%rcx,1)
    220a:	41 83 ce 01          	or     $0x1,%r14d
    220e:	44 89 c9             	mov    %r9d,%ecx
    2211:	44 89 74 01 04       	mov    %r14d,0x4(%rcx,%rax,1)
    2216:	5b                   	pop    %rbx
    2217:	41 5e                	pop    %r14
    2219:	c3                   	ret
    221a:	45 89 c8             	mov    %r9d,%r8d
    221d:	41 8b 54 00 0c       	mov    0xc(%r8,%rax,1),%edx
    2222:	81 f9 ff 00 00 00    	cmp    $0xff,%ecx
    2228:	76 63                	jbe    228d <aot_func#7+0x10d>
    222a:	45 8b 54 00 18       	mov    0x18(%r8,%rax,1),%r10d
    222f:	44 39 ca             	cmp    %r9d,%edx
    2232:	75 77                	jne    22ab <aot_func#7+0x12b>
    2234:	41 8b 74 00 14       	mov    0x14(%r8,%rax,1),%esi
    2239:	b9 14 00 00 00       	mov    $0x14,%ecx
    223e:	85 f6                	test   %esi,%esi
    2240:	75 12                	jne    2254 <aot_func#7+0xd4>
    2242:	41 8b 74 00 10       	mov    0x10(%r8,%rax,1),%esi
    2247:	b9 10 00 00 00       	mov    $0x10,%ecx
    224c:	85 f6                	test   %esi,%esi
    224e:	0f 84 ae 04 00 00    	je     2702 <aot_func#7+0x582>
    2254:	44 01 c9             	add    %r9d,%ecx
    2257:	66 0f 1f 84 00 00 00 	nopw   0x0(%rax,%rax,1)
    225e:	00 00 
    2260:	89 cf                	mov    %ecx,%edi
    2262:	89 f2                	mov    %esi,%edx
    2264:	8d 4a 14             	lea    0x14(%rdx),%ecx
    2267:	89 f3                	mov    %esi,%ebx
    2269:	8b 74 03 14          	mov    0x14(%rbx,%rax,1),%esi
    226d:	85 f6                	test   %esi,%esi
    226f:	75 ef                	jne    2260 <aot_func#7+0xe0>
    2271:	8d 4a 10             	lea    0x10(%rdx),%ecx
    2274:	8b 74 03 10          	mov    0x10(%rbx,%rax,1),%esi
    2278:	85 f6                	test   %esi,%esi
    227a:	75 e4                	jne    2260 <aot_func#7+0xe0>
    227c:	89 fe                	mov    %edi,%esi
    227e:	31 c9                	xor    %ecx,%ecx
    2280:	89 0c 30             	mov    %ecx,(%rax,%rsi,1)
    2283:	45 85 d2             	test   %r10d,%r10d
    2286:	75 38                	jne    22c0 <aot_func#7+0x140>
    2288:	e9 a8 00 00 00       	jmp    2335 <aot_func#7+0x1b5>
    228d:	41 8b 74 00 08       	mov    0x8(%r8,%rax,1),%esi
    2292:	39 f2                	cmp    %esi,%edx
    2294:	75 52                	jne    22e8 <aot_func#7+0x168>
    2296:	c0 e9 03             	shr    $0x3,%cl
    2299:	ba fe ff ff ff       	mov    $0xfffffffe,%edx
    229e:	d3 c2                	rol    %cl,%edx
    22a0:	21 90 84 0e 00 00    	and    %edx,0xe84(%rax)
    22a6:	e9 8a 00 00 00       	jmp    2335 <aot_func#7+0x1b5>
    22ab:	41 8b 4c 00 08       	mov    0x8(%r8,%rax,1),%ecx
    22b0:	89 54 01 0c          	mov    %edx,0xc(%rcx,%rax,1)
    22b4:	48 8d 72 08          	lea    0x8(%rdx),%rsi
    22b8:	89 0c 30             	mov    %ecx,(%rax,%rsi,1)
    22bb:	45 85 d2             	test   %r10d,%r10d
    22be:	74 75                	je     2335 <aot_func#7+0x1b5>
    22c0:	41 8b 4c 00 1c       	mov    0x1c(%r8,%rax,1),%ecx
    22c5:	8d 34 8d b4 0f 00 00 	lea    0xfb4(,%rcx,4),%esi
    22cc:	44 3b 0c 30          	cmp    (%rax,%rsi,1),%r9d
    22d0:	75 20                	jne    22f2 <aot_func#7+0x172>
    22d2:	89 14 30             	mov    %edx,(%rax,%rsi,1)
    22d5:	85 d2                	test   %edx,%edx
    22d7:	75 31                	jne    230a <aot_func#7+0x18a>
    22d9:	ba fe ff ff ff       	mov    $0xfffffffe,%edx
    22de:	d3 c2                	rol    %cl,%edx
    22e0:	21 90 88 0e 00 00    	and    %edx,0xe88(%rax)
    22e6:	eb 4d                	jmp    2335 <aot_func#7+0x1b5>
    22e8:	89 74 02 08          	mov    %esi,0x8(%rdx,%rax,1)
    22ec:	89 54 06 0c          	mov    %edx,0xc(%rsi,%rax,1)
    22f0:	eb 43                	jmp    2335 <aot_func#7+0x1b5>
    22f2:	31 c9                	xor    %ecx,%ecx
    22f4:	45 39 4c 02 10       	cmp    %r9d,0x10(%r10,%rax,1)
    22f9:	0f 95 c1             	setne  %cl
    22fc:	41 8d 0c 8a          	lea    (%r10,%rcx,4),%ecx
    2300:	83 c1 10             	add    $0x10,%ecx
    2303:	89 14 08             	mov    %edx,(%rax,%rcx,1)
    2306:	85 d2                	test   %edx,%edx
    2308:	74 2b                	je     2335 <aot_func#7+0x1b5>
    230a:	89 d1                	mov    %edx,%ecx
    230c:	44 89 54 01 18       	mov    %r10d,0x18(%rcx,%rax,1)
    2311:	41 8b 74 00 10       	mov    0x10(%r8,%rax,1),%esi
    2316:	48 85 f6             	test   %rsi,%rsi
    2319:	74 08                	je     2323 <aot_func#7+0x1a3>
    231b:	89 74 01 10          	mov    %esi,0x10(%rcx,%rax,1)
    231f:	89 54 06 18          	mov    %edx,0x18(%rsi,%rax,1)
    2323:	41 8b 74 00 14       	mov    0x14(%r8,%rax,1),%esi
    2328:	48 85 f6             	test   %rsi,%rsi
    232b:	74 08                	je     2335 <aot_func#7+0x1b5>
    232d:	89 74 01 14          	mov    %esi,0x14(%rcx,%rax,1)
    2331:	89 54 06 18          	mov    %edx,0x18(%rsi,%rax,1)
    2335:	45 39 d9             	cmp    %r11d,%r9d
    2338:	0f 83 9c 02 00 00    	jae    25da <aot_func#7+0x45a>
    233e:	45 89 d8             	mov    %r11d,%r8d
    2341:	41 8b 4c 00 04       	mov    0x4(%r8,%rax,1),%ecx
    2346:	f6 c1 01             	test   $0x1,%cl
    2349:	0f 84 8b 02 00 00    	je     25da <aot_func#7+0x45a>
    234f:	f6 c1 02             	test   $0x2,%cl
    2352:	75 53                	jne    23a7 <aot_func#7+0x227>
    2354:	44 3b 98 9c 0e 00 00 	cmp    0xe9c(%rax),%r11d
    235b:	0f 85 60 01 00 00    	jne    24c1 <aot_func#7+0x341>
    2361:	44 89 88 9c 0e 00 00 	mov    %r9d,0xe9c(%rax)
    2368:	44 03 b0 90 0e 00 00 	add    0xe90(%rax),%r14d
    236f:	44 89 b0 90 0e 00 00 	mov    %r14d,0xe90(%rax)
    2376:	41 83 ce 01          	or     $0x1,%r14d
    237a:	44 89 c9             	mov    %r9d,%ecx
    237d:	44 89 74 01 04       	mov    %r14d,0x4(%rcx,%rax,1)
    2382:	44 3b 88 98 0e 00 00 	cmp    0xe98(%rax),%r9d
    2389:	0f 85 4b 02 00 00    	jne    25da <aot_func#7+0x45a>
    238f:	c7 80 8c 0e 00 00 00 	movl   $0x0,0xe8c(%rax)
    2396:	00 00 00 
    2399:	c7 80 98 0e 00 00 00 	movl   $0x0,0xe98(%rax)
    23a0:	00 00 00 
    23a3:	5b                   	pop    %rbx
    23a4:	41 5e                	pop    %r14
    23a6:	c3                   	ret
    23a7:	83 e1 fe             	and    $0xfffffffe,%ecx
    23aa:	42 89 4c 00 04       	mov    %ecx,0x4(%rax,%r8,1)
    23af:	43 8d 0c 31          	lea    (%r9,%r14,1),%ecx
    23b3:	44 89 34 08          	mov    %r14d,(%rax,%rcx,1)
    23b7:	44 89 f1             	mov    %r14d,%ecx
    23ba:	83 c9 01             	or     $0x1,%ecx
    23bd:	44 89 ca             	mov    %r9d,%edx
    23c0:	89 4c 02 04          	mov    %ecx,0x4(%rdx,%rax,1)
    23c4:	41 81 fe ff 00 00 00 	cmp    $0xff,%r14d
    23cb:	0f 86 bd 00 00 00    	jbe    248e <aot_func#7+0x30e>
    23d1:	be 1f 00 00 00       	mov    $0x1f,%esi
    23d6:	41 81 fe ff ff ff 00 	cmp    $0xffffff,%r14d
    23dd:	77 1e                	ja     23fd <aot_func#7+0x27d>
    23df:	44 89 f1             	mov    %r14d,%ecx
    23e2:	c1 e9 08             	shr    $0x8,%ecx
    23e5:	f3 0f bd c9          	lzcnt  %ecx,%ecx
    23e9:	ba 06 00 00 00       	mov    $0x6,%edx
    23ee:	29 ca                	sub    %ecx,%edx
    23f0:	01 c9                	add    %ecx,%ecx
    23f2:	31 f6                	xor    %esi,%esi
    23f4:	41 0f a3 d6          	bt     %edx,%r14d
    23f8:	83 d6 3e             	adc    $0x3e,%esi
    23fb:	29 ce                	sub    %ecx,%esi
    23fd:	45 89 c8             	mov    %r9d,%r8d
    2400:	41 89 74 00 1c       	mov    %esi,0x1c(%r8,%rax,1)
    2405:	49 c7 44 00 10 00 00 	movq   $0x0,0x10(%r8,%rax,1)
    240c:	00 00 
    240e:	8d 14 b5 b4 0f 00 00 	lea    0xfb4(,%rsi,4),%edx
    2415:	8b 88 88 0e 00 00    	mov    0xe88(%rax),%ecx
    241b:	0f a3 f1             	bt     %esi,%ecx
    241e:	0f 83 5d 01 00 00    	jae    2581 <aot_func#7+0x401>
    2424:	89 f1                	mov    %esi,%ecx
    2426:	d0 e9                	shr    $1,%cl
    2428:	b3 19                	mov    $0x19,%bl
    242a:	28 cb                	sub    %cl,%bl
    242c:	80 e3 1f             	and    $0x1f,%bl
    242f:	31 c9                	xor    %ecx,%ecx
    2431:	83 fe 1f             	cmp    $0x1f,%esi
    2434:	0f b6 f3             	movzbl %bl,%esi
    2437:	0f 44 f1             	cmove  %ecx,%esi
    243a:	c4 c2 49 f7 ce       	shlx   %esi,%r14d,%ecx
    243f:	89 d2                	mov    %edx,%edx
    2441:	8b 3c 10             	mov    (%rax,%rdx,1),%edi
    2444:	66 66 66 2e 0f 1f 84 	data16 data16 cs nopw 0x0(%rax,%rax,1)
    244b:	00 00 00 00 00 
    2450:	89 fe                	mov    %edi,%esi
    2452:	89 ff                	mov    %edi,%edi
    2454:	8b 54 07 04          	mov    0x4(%rdi,%rax,1),%edx
    2458:	83 e2 f8             	and    $0xfffffff8,%edx
    245b:	44 39 f2             	cmp    %r14d,%edx
    245e:	0f 84 7a 01 00 00    	je     25de <aot_func#7+0x45e>
    2464:	8d 1c 09             	lea    (%rcx,%rcx,1),%ebx
    2467:	c1 e9 1f             	shr    $0x1f,%ecx
    246a:	8d 14 8e             	lea    (%rsi,%rcx,4),%edx
    246d:	83 c2 10             	add    $0x10,%edx
    2470:	8b 3c 10             	mov    (%rax,%rdx,1),%edi
    2473:	89 d9                	mov    %ebx,%ecx
    2475:	85 ff                	test   %edi,%edi
    2477:	75 d7                	jne    2450 <aot_func#7+0x2d0>
    2479:	b9 18 00 00 00       	mov    $0x18,%ecx
    247e:	bf 08 00 00 00       	mov    $0x8,%edi
    2483:	45 89 ca             	mov    %r9d,%r10d
    2486:	45 89 cb             	mov    %r9d,%r11d
    2489:	e9 6c 01 00 00       	jmp    25fa <aot_func#7+0x47a>
    248e:	44 89 f1             	mov    %r14d,%ecx
    2491:	83 e1 f8             	and    $0xfffffff8,%ecx
    2494:	8d 91 ac 0e 00 00    	lea    0xeac(%rcx),%edx
    249a:	8b b0 84 0e 00 00    	mov    0xe84(%rax),%esi
    24a0:	41 c1 ee 03          	shr    $0x3,%r14d
    24a4:	44 0f a3 f6          	bt     %r14d,%esi
    24a8:	0f 83 f9 00 00 00    	jae    25a7 <aot_func#7+0x427>
    24ae:	8b b4 08 b4 0e 00 00 	mov    0xeb4(%rax,%rcx,1),%esi
    24b5:	48 81 c1 b4 0e 00 00 	add    $0xeb4,%rcx
    24bc:	e9 03 01 00 00       	jmp    25c4 <aot_func#7+0x444>
    24c1:	44 3b 98 98 0e 00 00 	cmp    0xe98(%rax),%r11d
    24c8:	75 2d                	jne    24f7 <aot_func#7+0x377>
    24ca:	44 89 88 98 0e 00 00 	mov    %r9d,0xe98(%rax)
    24d1:	44 03 b0 8c 0e 00 00 	add    0xe8c(%rax),%r14d
    24d8:	44 89 b0 8c 0e 00 00 	mov    %r14d,0xe8c(%rax)
    24df:	44 89 f1             	mov    %r14d,%ecx
    24e2:	83 c9 01             	or     $0x1,%ecx
    24e5:	44 89 ca             	mov    %r9d,%edx
    24e8:	89 4c 02 04          	mov    %ecx,0x4(%rdx,%rax,1)
    24ec:	45 01 f1             	add    %r14d,%r9d
    24ef:	46 89 34 08          	mov    %r14d,(%rax,%r9,1)
    24f3:	5b                   	pop    %rbx
    24f4:	41 5e                	pop    %r14
    24f6:	c3                   	ret
    24f7:	89 ca                	mov    %ecx,%edx
    24f9:	83 e2 f8             	and    $0xfffffff8,%edx
    24fc:	41 01 d6             	add    %edx,%r14d
    24ff:	41 8b 54 00 0c       	mov    0xc(%r8,%rax,1),%edx
    2504:	81 f9 ff 00 00 00    	cmp    $0xff,%ecx
    250a:	0f 86 1d 01 00 00    	jbe    262d <aot_func#7+0x4ad>
    2510:	45 8b 54 00 18       	mov    0x18(%r8,%rax,1),%r10d
    2515:	44 39 da             	cmp    %r11d,%edx
    2518:	0f 85 2d 01 00 00    	jne    264b <aot_func#7+0x4cb>
    251e:	41 8b 74 00 14       	mov    0x14(%r8,%rax,1),%esi
    2523:	b9 14 00 00 00       	mov    $0x14,%ecx
    2528:	85 f6                	test   %esi,%esi
    252a:	75 12                	jne    253e <aot_func#7+0x3be>
    252c:	41 8b 74 00 10       	mov    0x10(%r8,%rax,1),%esi
    2531:	b9 10 00 00 00       	mov    $0x10,%ecx
    2536:	85 f6                	test   %esi,%esi
    2538:	0f 84 d4 01 00 00    	je     2712 <aot_func#7+0x592>
    253e:	44 01 d9             	add    %r11d,%ecx
    2541:	66 66 66 66 66 66 2e 	data16 data16 data16 data16 data16 cs nopw 0x0(%rax,%rax,1)
    2548:	0f 1f 84 00 00 00 00 
    254f:	00 
    2550:	89 cf                	mov    %ecx,%edi
    2552:	89 f2                	mov    %esi,%edx
    2554:	8d 4a 14             	lea    0x14(%rdx),%ecx
    2557:	89 f3                	mov    %esi,%ebx
    2559:	8b 74 03 14          	mov    0x14(%rbx,%rax,1),%esi
    255d:	85 f6                	test   %esi,%esi
    255f:	75 ef                	jne    2550 <aot_func#7+0x3d0>
    2561:	8d 4a 10             	lea    0x10(%rdx),%ecx
    2564:	8b 74 03 10          	mov    0x10(%rbx,%rax,1),%esi
    2568:	85 f6                	test   %esi,%esi
    256a:	75 e4                	jne    2550 <aot_func#7+0x3d0>
    256c:	89 fe                	mov    %edi,%esi
    256e:	31 c9                	xor    %ecx,%ecx
    2570:	89 0c 30             	mov    %ecx,(%rax,%rsi,1)
    2573:	45 85 d2             	test   %r10d,%r10d
    2576:	0f 85 e4 00 00 00    	jne    2660 <aot_func#7+0x4e0>
    257c:	e9 54 01 00 00       	jmp    26d5 <aot_func#7+0x555>
    2581:	bf 01 00 00 00       	mov    $0x1,%edi
    2586:	c4 e2 49 f7 f7       	shlx   %esi,%edi,%esi
    258b:	09 f1                	or     %esi,%ecx
    258d:	89 88 88 0e 00 00    	mov    %ecx,0xe88(%rax)
    2593:	b9 18 00 00 00       	mov    $0x18,%ecx
    2598:	bf 08 00 00 00       	mov    $0x8,%edi
    259d:	45 89 ca             	mov    %r9d,%r10d
    25a0:	89 d6                	mov    %edx,%esi
    25a2:	45 89 cb             	mov    %r9d,%r11d
    25a5:	eb 53                	jmp    25fa <aot_func#7+0x47a>
    25a7:	bf 01 00 00 00       	mov    $0x1,%edi
    25ac:	c4 e2 09 f7 ff       	shlx   %r14d,%edi,%edi
    25b1:	09 fe                	or     %edi,%esi
    25b3:	89 b0 84 0e 00 00    	mov    %esi,0xe84(%rax)
    25b9:	89 c9                	mov    %ecx,%ecx
    25bb:	48 81 c1 b4 0e 00 00 	add    $0xeb4,%rcx
    25c2:	89 d6                	mov    %edx,%esi
    25c4:	89 f7                	mov    %esi,%edi
    25c6:	44 89 4c 07 0c       	mov    %r9d,0xc(%rdi,%rax,1)
    25cb:	44 89 0c 08          	mov    %r9d,(%rax,%rcx,1)
    25cf:	44 89 c9             	mov    %r9d,%ecx
    25d2:	89 54 01 0c          	mov    %edx,0xc(%rcx,%rax,1)
    25d6:	89 74 01 08          	mov    %esi,0x8(%rcx,%rax,1)
    25da:	5b                   	pop    %rbx
    25db:	41 5e                	pop    %r14
    25dd:	c3                   	ret
    25de:	8d 56 08             	lea    0x8(%rsi),%edx
    25e1:	41 89 f2             	mov    %esi,%r10d
    25e4:	8b 74 07 08          	mov    0x8(%rdi,%rax,1),%esi
    25e8:	44 89 4c 06 0c       	mov    %r9d,0xc(%rsi,%rax,1)
    25ed:	45 31 db             	xor    %r11d,%r11d
    25f0:	b9 08 00 00 00       	mov    $0x8,%ecx
    25f5:	bf 18 00 00 00       	mov    $0x18,%edi
    25fa:	89 d2                	mov    %edx,%edx
    25fc:	44 89 0c 10          	mov    %r9d,(%rax,%rdx,1)
    2600:	44 01 c9             	add    %r9d,%ecx
    2603:	89 34 08             	mov    %esi,(%rax,%rcx,1)
    2606:	45 89 54 00 0c       	mov    %r10d,0xc(%r8,%rax,1)
    260b:	44 01 cf             	add    %r9d,%edi
    260e:	44 89 1c 38          	mov    %r11d,(%rax,%rdi,1)
    2612:	8b 88 a4 0e 00 00    	mov    0xea4(%rax),%ecx
    2618:	ff c9                	dec    %ecx
    261a:	31 d2                	xor    %edx,%edx
    261c:	83 f9 01             	cmp    $0x1,%ecx
    261f:	19 d2                	sbb    %edx,%edx
    2621:	09 ca                	or     %ecx,%edx
    2623:	89 90 a4 0e 00 00    	mov    %edx,0xea4(%rax)
    2629:	5b                   	pop    %rbx
    262a:	41 5e                	pop    %r14
    262c:	c3                   	ret
    262d:	41 8b 74 00 08       	mov    0x8(%r8,%rax,1),%esi
    2632:	39 f2                	cmp    %esi,%edx
    2634:	75 52                	jne    2688 <aot_func#7+0x508>
    2636:	c0 e9 03             	shr    $0x3,%cl
    2639:	ba fe ff ff ff       	mov    $0xfffffffe,%edx
    263e:	d3 c2                	rol    %cl,%edx
    2640:	21 90 84 0e 00 00    	and    %edx,0xe84(%rax)
    2646:	e9 8a 00 00 00       	jmp    26d5 <aot_func#7+0x555>
    264b:	41 8b 4c 00 08       	mov    0x8(%r8,%rax,1),%ecx
    2650:	89 54 01 0c          	mov    %edx,0xc(%rcx,%rax,1)
    2654:	48 8d 72 08          	lea    0x8(%rdx),%rsi
    2658:	89 0c 30             	mov    %ecx,(%rax,%rsi,1)
    265b:	45 85 d2             	test   %r10d,%r10d
    265e:	74 75                	je     26d5 <aot_func#7+0x555>
    2660:	41 8b 4c 00 1c       	mov    0x1c(%r8,%rax,1),%ecx
    2665:	8d 34 8d b4 0f 00 00 	lea    0xfb4(,%rcx,4),%esi
    266c:	44 3b 1c 30          	cmp    (%rax,%rsi,1),%r11d
    2670:	75 20                	jne    2692 <aot_func#7+0x512>
    2672:	89 14 30             	mov    %edx,(%rax,%rsi,1)
    2675:	85 d2                	test   %edx,%edx
    2677:	75 31                	jne    26aa <aot_func#7+0x52a>
    2679:	ba fe ff ff ff       	mov    $0xfffffffe,%edx
    267e:	d3 c2                	rol    %cl,%edx
    2680:	21 90 88 0e 00 00    	and    %edx,0xe88(%rax)
    2686:	eb 4d                	jmp    26d5 <aot_func#7+0x555>
    2688:	89 74 02 08          	mov    %esi,0x8(%rdx,%rax,1)
    268c:	89 54 06 0c          	mov    %edx,0xc(%rsi,%rax,1)
    2690:	eb 43                	jmp    26d5 <aot_func#7+0x555>
    2692:	31 c9                	xor    %ecx,%ecx
    2694:	45 39 5c 02 10       	cmp    %r11d,0x10(%r10,%rax,1)
    2699:	0f 95 c1             	setne  %cl
    269c:	41 8d 0c 8a          	lea    (%r10,%rcx,4),%ecx
    26a0:	83 c1 10             	add    $0x10,%ecx
    26a3:	89 14 08             	mov    %edx,(%rax,%rcx,1)
    26a6:	85 d2                	test   %edx,%edx
    26a8:	74 2b                	je     26d5 <aot_func#7+0x555>
    26aa:	89 d1                	mov    %edx,%ecx
    26ac:	44 89 54 01 18       	mov    %r10d,0x18(%rcx,%rax,1)
    26b1:	41 8b 74 00 10       	mov    0x10(%r8,%rax,1),%esi
    26b6:	48 85 f6             	test   %rsi,%rsi
    26b9:	74 08                	je     26c3 <aot_func#7+0x543>
    26bb:	89 74 01 10          	mov    %esi,0x10(%rcx,%rax,1)
    26bf:	89 54 06 18          	mov    %edx,0x18(%rsi,%rax,1)
    26c3:	41 8b 74 00 14       	mov    0x14(%r8,%rax,1),%esi
    26c8:	48 85 f6             	test   %rsi,%rsi
    26cb:	74 08                	je     26d5 <aot_func#7+0x555>
    26cd:	89 74 01 14          	mov    %esi,0x14(%rcx,%rax,1)
    26d1:	89 54 06 18          	mov    %edx,0x18(%rsi,%rax,1)
    26d5:	43 8d 0c 0e          	lea    (%r14,%r9,1),%ecx
    26d9:	44 89 34 08          	mov    %r14d,(%rax,%rcx,1)
    26dd:	44 89 f1             	mov    %r14d,%ecx
    26e0:	83 c9 01             	or     $0x1,%ecx
    26e3:	44 89 ca             	mov    %r9d,%edx
    26e6:	89 4c 02 04          	mov    %ecx,0x4(%rdx,%rax,1)
    26ea:	44 3b 88 98 0e 00 00 	cmp    0xe98(%rax),%r9d
    26f1:	0f 85 cd fc ff ff    	jne    23c4 <aot_func#7+0x244>
    26f7:	44 89 b0 8c 0e 00 00 	mov    %r14d,0xe8c(%rax)
    26fe:	5b                   	pop    %rbx
    26ff:	41 5e                	pop    %r14
    2701:	c3                   	ret
    2702:	31 d2                	xor    %edx,%edx
    2704:	45 85 d2             	test   %r10d,%r10d
    2707:	0f 85 b3 fb ff ff    	jne    22c0 <aot_func#7+0x140>
    270d:	e9 23 fc ff ff       	jmp    2335 <aot_func#7+0x1b5>
    2712:	31 d2                	xor    %edx,%edx
    2714:	45 85 d2             	test   %r10d,%r10d
    2717:	0f 85 43 ff ff ff    	jne    2660 <aot_func#7+0x4e0>
    271d:	eb b6                	jmp    26d5 <aot_func#7+0x555>
    271f:	90                   	nop

0000000000002720 <aot_func#8>:
    2720:	55                   	push   %rbp
    2721:	41 57                	push   %r15
    2723:	41 56                	push   %r14
    2725:	53                   	push   %rbx
    2726:	50                   	push   %rax
    2727:	48 89 fb             	mov    %rdi,%rbx
    272a:	85 f6                	test   %esi,%esi
    272c:	74 23                	je     2751 <aot_func#8+0x31>
    272e:	89 d1                	mov    %edx,%ecx
    2730:	89 f0                	mov    %esi,%eax
    2732:	f7 e2                	mul    %edx
    2734:	41 89 c6             	mov    %eax,%r14d
    2737:	0f 90 c0             	seto   %al
    273a:	09 f1                	or     %esi,%ecx
    273c:	81 f9 00 00 01 00    	cmp    $0x10000,%ecx
    2742:	72 10                	jb     2754 <aot_func#8+0x34>
    2744:	84 c0                	test   %al,%al
    2746:	b8 ff ff ff ff       	mov    $0xffffffff,%eax
    274b:	44 0f 45 f0          	cmovne %eax,%r14d
    274f:	eb 03                	jmp    2754 <aot_func#8+0x34>
    2751:	45 31 f6             	xor    %r14d,%r14d
    2754:	4c 8b 7b 10          	mov    0x10(%rbx),%r15
    2758:	48 89 df             	mov    %rbx,%rdi
    275b:	44 89 f6             	mov    %r14d,%esi
    275e:	e8 00 00 00 00       	call   2763 <aot_func#8+0x43>
    2763:	89 c5                	mov    %eax,%ebp
    2765:	85 c0                	test   %eax,%eax
    2767:	74 21                	je     278a <aot_func#8+0x6a>
    2769:	89 e8                	mov    %ebp,%eax
    276b:	83 c0 fc             	add    $0xfffffffc,%eax
    276e:	49 8b 8f 78 01 00 00 	mov    0x178(%r15),%rcx
    2775:	f6 04 01 03          	testb  $0x3,(%rcx,%rax,1)
    2779:	74 0f                	je     278a <aot_func#8+0x6a>
    277b:	48 89 df             	mov    %rbx,%rdi
    277e:	89 ee                	mov    %ebp,%esi
    2780:	31 d2                	xor    %edx,%edx
    2782:	44 89 f1             	mov    %r14d,%ecx
    2785:	e8 00 00 00 00       	call   278a <aot_func#8+0x6a>
    278a:	89 e8                	mov    %ebp,%eax
    278c:	48 83 c4 08          	add    $0x8,%rsp
    2790:	5b                   	pop    %rbx
    2791:	41 5e                	pop    %r14
    2793:	41 5f                	pop    %r15
    2795:	5d                   	pop    %rbp
    2796:	c3                   	ret
    2797:	66 0f 1f 84 00 00 00 	nopw   0x0(%rax,%rax,1)
    279e:	00 00 

00000000000027a0 <aot_func#9>:
    27a0:	53                   	push   %rbx
    27a1:	48 8b 5f 10          	mov    0x10(%rdi),%rbx
    27a5:	48 8b 43 28          	mov    0x28(%rbx),%rax
    27a9:	ff 50 30             	call   *0x30(%rax)
    27ac:	31 c0                	xor    %eax,%eax
    27ae:	80 7b 68 00          	cmpb   $0x0,0x68(%rbx)
    27b2:	be 21 00 00 00       	mov    $0x21,%esi
    27b7:	0f 44 f0             	cmove  %eax,%esi
    27ba:	48 89 df             	mov    %rbx,%rdi
    27bd:	e8 00 00 00 00       	call   27c2 <aot_func#9+0x22>
    27c2:	48 89 df             	mov    %rbx,%rdi
    27c5:	31 f6                	xor    %esi,%esi
    27c7:	5b                   	pop    %rbx
    27c8:	e9 00 00 00 00       	jmp    27cd <aot_func#9+0x2d>
    27cd:	0f 1f 00             	nopl   (%rax)

00000000000027d0 <aot_func#10>:
    27d0:	55                   	push   %rbp
    27d1:	41 57                	push   %r15
    27d3:	41 56                	push   %r14
    27d5:	41 55                	push   %r13
    27d7:	41 54                	push   %r12
    27d9:	53                   	push   %rbx
    27da:	48 83 ec 18          	sub    $0x18,%rsp
    27de:	49 89 ff             	mov    %rdi,%r15
    27e1:	48 8b 47 10          	mov    0x10(%rdi),%rax
    27e5:	8b 88 d0 01 00 00    	mov    0x1d0(%rax),%ecx
    27eb:	8d 51 f0             	lea    -0x10(%rcx),%edx
    27ee:	48 89 44 24 08       	mov    %rax,0x8(%rsp)
    27f3:	89 54 24 04          	mov    %edx,0x4(%rsp)
    27f7:	89 90 d0 01 00 00    	mov    %edx,0x1d0(%rax)
    27fd:	8d 51 f8             	lea    -0x8(%rcx),%edx
    2800:	48 89 4c 24 10       	mov    %rcx,0x10(%rsp)
    2805:	44 8d 61 fc          	lea    -0x4(%rcx),%r12d
    2809:	48 8b 6f 10          	mov    0x10(%rdi),%rbp
    280d:	48 8b 5f 18          	mov    0x18(%rdi),%rbx
    2811:	4c 8b 75 28          	mov    0x28(%rbp),%r14
    2815:	b9 01 00 00 00       	mov    $0x1,%ecx
    281a:	48 89 ef             	mov    %rbp,%rdi
    281d:	31 f6                	xor    %esi,%esi
    281f:	49 89 d8             	mov    %rbx,%r8
    2822:	e8 00 00 00 00       	call   2827 <aot_func#10+0x57>
    2827:	4c 8b 2b             	mov    (%rbx),%r13
    282a:	b9 01 00 00 00       	mov    $0x1,%ecx
    282f:	48 89 ef             	mov    %rbp,%rdi
    2832:	31 f6                	xor    %esi,%esi
    2834:	4c 89 e2             	mov    %r12,%rdx
    2837:	49 89 d8             	mov    %rbx,%r8
    283a:	e8 00 00 00 00       	call   283f <aot_func#10+0x6f>
    283f:	48 8b 13             	mov    (%rbx),%rdx
    2842:	4c 89 ff             	mov    %r15,%rdi
    2845:	4c 89 ee             	mov    %r13,%rsi
    2848:	41 ff 56 08          	call   *0x8(%r14)
    284c:	80 7d 68 00          	cmpb   $0x0,0x68(%rbp)
    2850:	0f 84 17 01 00 00    	je     296d <aot_func#10+0x19d>
    2856:	48 89 ef             	mov    %rbp,%rdi
    2859:	be 21 00 00 00       	mov    $0x21,%esi
    285e:	e8 00 00 00 00       	call   2863 <aot_func#10+0x93>
    2863:	4c 8b 74 24 08       	mov    0x8(%rsp),%r14
    2868:	49 8b 86 78 01 00 00 	mov    0x178(%r14),%rax
    286f:	8b 4c 24 04          	mov    0x4(%rsp),%ecx
    2873:	8b 5c 01 08          	mov    0x8(%rcx,%rax,1),%ebx
    2877:	41 bd 46 00 00 00    	mov    $0x46,%r13d
    287d:	ff c3                	inc    %ebx
    287f:	0f 84 38 01 00 00    	je     29bd <aot_func#10+0x1ed>
    2885:	8b 74 01 0c          	mov    0xc(%rcx,%rax,1),%esi
    2889:	4c 89 ff             	mov    %r15,%rdi
    288c:	e8 00 00 00 00       	call   2891 <aot_func#10+0xc1>
    2891:	49 8b 6f 10          	mov    0x10(%r15),%rbp
    2895:	85 c0                	test   %eax,%eax
    2897:	0f 84 e5 00 00 00    	je     2982 <aot_func#10+0x1b2>
    289d:	89 44 24 04          	mov    %eax,0x4(%rsp)
    28a1:	b9 04 00 00 00       	mov    $0x4,%ecx
    28a6:	89 d8                	mov    %ebx,%eax
    28a8:	f7 e1                	mul    %ecx
    28aa:	41 bd ff ff ff ff    	mov    $0xffffffff,%r13d
    28b0:	44 0f 41 e8          	cmovno %eax,%r13d
    28b4:	81 fb 00 00 01 00    	cmp    $0x10000,%ebx
    28ba:	44 0f 42 e8          	cmovb  %eax,%r13d
    28be:	4c 89 ff             	mov    %r15,%rdi
    28c1:	44 89 ee             	mov    %r13d,%esi
    28c4:	e8 00 00 00 00       	call   28c9 <aot_func#10+0xf9>
    28c9:	85 c0                	test   %eax,%eax
    28cb:	0f 84 b9 00 00 00    	je     298a <aot_func#10+0x1ba>
    28d1:	41 89 c4             	mov    %eax,%r12d
    28d4:	41 8d 44 24 fc       	lea    -0x4(%r12),%eax
    28d9:	48 8b 8d 78 01 00 00 	mov    0x178(%rbp),%rcx
    28e0:	f6 04 01 03          	testb  $0x3,(%rcx,%rax,1)
    28e4:	74 10                	je     28f6 <aot_func#10+0x126>
    28e6:	4c 89 ff             	mov    %r15,%rdi
    28e9:	44 89 e6             	mov    %r12d,%esi
    28ec:	31 d2                	xor    %edx,%edx
    28ee:	44 89 e9             	mov    %r13d,%ecx
    28f1:	e8 00 00 00 00       	call   28f6 <aot_func#10+0x126>
    28f6:	49 8b 6f 10          	mov    0x10(%r15),%rbp
    28fa:	49 8b 5f 18          	mov    0x18(%r15),%rbx
    28fe:	4c 8b 75 28          	mov    0x28(%rbp),%r14
    2902:	44 89 e2             	mov    %r12d,%edx
    2905:	b9 01 00 00 00       	mov    $0x1,%ecx
    290a:	48 89 ef             	mov    %rbp,%rdi
    290d:	31 f6                	xor    %esi,%esi
    290f:	49 89 d8             	mov    %rbx,%r8
    2912:	e8 00 00 00 00       	call   2917 <aot_func#10+0x147>
    2917:	4c 8b 2b             	mov    (%rbx),%r13
    291a:	8b 54 24 04          	mov    0x4(%rsp),%edx
    291e:	b9 01 00 00 00       	mov    $0x1,%ecx
    2923:	48 89 ef             	mov    %rbp,%rdi
    2926:	31 f6                	xor    %esi,%esi
    2928:	49 89 d8             	mov    %rbx,%r8
    292b:	e8 00 00 00 00       	call   2930 <aot_func#10+0x160>
    2930:	48 8b 13             	mov    (%rbx),%rdx
    2933:	4c 89 ff             	mov    %r15,%rdi
    2936:	4c 89 ee             	mov    %r13,%rsi
    2939:	41 ff 16             	call   *(%r14)
    293c:	80 7d 68 00          	cmpb   $0x0,0x68(%rbp)
    2940:	74 54                	je     2996 <aot_func#10+0x1c6>
    2942:	48 89 ef             	mov    %rbp,%rdi
    2945:	be 21 00 00 00       	mov    $0x21,%esi
    294a:	e8 00 00 00 00       	call   294f <aot_func#10+0x17f>
    294f:	4c 8b 74 24 08       	mov    0x8(%rsp),%r14
    2954:	4c 89 ff             	mov    %r15,%rdi
    2957:	e8 00 00 00 00       	call   295c <aot_func#10+0x18c>
    295c:	48 8b 4c 24 10       	mov    0x10(%rsp),%rcx
    2961:	41 89 8e d0 01 00 00 	mov    %ecx,0x1d0(%r14)
    2968:	e9 8d 00 00 00       	jmp    29fa <aot_func#10+0x22a>
    296d:	41 bd 47 00 00 00    	mov    $0x47,%r13d
    2973:	66 85 c0             	test   %ax,%ax
    2976:	4c 8b 74 24 08       	mov    0x8(%rsp),%r14
    297b:	75 40                	jne    29bd <aot_func#10+0x1ed>
    297d:	e9 e6 fe ff ff       	jmp    2868 <aot_func#10+0x98>
    2982:	41 bd 46 00 00 00    	mov    $0x46,%r13d
    2988:	eb 37                	jmp    29c1 <aot_func#10+0x1f1>
    298a:	41 bd 46 00 00 00    	mov    $0x46,%r13d
    2990:	8b 74 24 04          	mov    0x4(%rsp),%esi
    2994:	eb 1f                	jmp    29b5 <aot_func#10+0x1e5>
    2996:	66 85 c0             	test   %ax,%ax
    2999:	4c 8b 74 24 08       	mov    0x8(%rsp),%r14
    299e:	74 b4                	je     2954 <aot_func#10+0x184>
    29a0:	4c 89 ff             	mov    %r15,%rdi
    29a3:	8b 74 24 04          	mov    0x4(%rsp),%esi
    29a7:	e8 00 00 00 00       	call   29ac <aot_func#10+0x1dc>
    29ac:	41 bd 47 00 00 00    	mov    $0x47,%r13d
    29b2:	44 89 e6             	mov    %r12d,%esi
    29b5:	4c 89 ff             	mov    %r15,%rdi
    29b8:	e8 00 00 00 00       	call   29bd <aot_func#10+0x1ed>
    29bd:	49 8b 6f 10          	mov    0x10(%r15),%rbp
    29c1:	48 8b 45 28          	mov    0x28(%rbp),%rax
    29c5:	4c 89 ff             	mov    %r15,%rdi
    29c8:	44 89 ee             	mov    %r13d,%esi
    29cb:	ff 50 30             	call   *0x30(%rax)
    29ce:	31 c0                	xor    %eax,%eax
    29d0:	80 7d 68 00          	cmpb   $0x0,0x68(%rbp)
    29d4:	be 21 00 00 00       	mov    $0x21,%esi
    29d9:	0f 44 f0             	cmove  %eax,%esi
    29dc:	48 89 ef             	mov    %rbp,%rdi
    29df:	e8 00 00 00 00       	call   29e4 <aot_func#10+0x214>
    29e4:	48 89 ef             	mov    %rbp,%rdi
    29e7:	31 f6                	xor    %esi,%esi
    29e9:	e8 00 00 00 00       	call   29ee <aot_func#10+0x21e>
    29ee:	4c 89 f7             	mov    %r14,%rdi
    29f1:	31 f6                	xor    %esi,%esi
    29f3:	e8 00 00 00 00       	call   29f8 <aot_func#10+0x228>
    29f8:	31 c0                	xor    %eax,%eax
    29fa:	48 83 c4 18          	add    $0x18,%rsp
    29fe:	5b                   	pop    %rbx
    29ff:	41 5c                	pop    %r12
    2a01:	41 5d                	pop    %r13
    2a03:	41 5e                	pop    %r14
    2a05:	41 5f                	pop    %r15
    2a07:	5d                   	pop    %rbp
    2a08:	c3                   	ret
    2a09:	0f 1f 80 00 00 00 00 	nopl   0x0(%rax)

0000000000002a10 <aot_func#11>:
    2a10:	55                   	push   %rbp
    2a11:	41 57                	push   %r15
    2a13:	41 56                	push   %r14
    2a15:	41 55                	push   %r13
    2a17:	41 54                	push   %r12
    2a19:	53                   	push   %rbx
    2a1a:	50                   	push   %rax
    2a1b:	41 89 d7             	mov    %edx,%r15d
    2a1e:	49 89 fc             	mov    %rdi,%r12
    2a21:	48 8b 5f 10          	mov    0x10(%rdi),%rbx
    2a25:	48 8b 6f 18          	mov    0x18(%rdi),%rbp
    2a29:	4c 8b 73 28          	mov    0x28(%rbx),%r14
    2a2d:	89 f2                	mov    %esi,%edx
    2a2f:	b9 01 00 00 00       	mov    $0x1,%ecx
    2a34:	48 89 df             	mov    %rbx,%rdi
    2a37:	31 f6                	xor    %esi,%esi
    2a39:	49 89 e8             	mov    %rbp,%r8
    2a3c:	e8 00 00 00 00       	call   2a41 <aot_func#11+0x31>
    2a41:	4c 8b 6d 00          	mov    0x0(%rbp),%r13
    2a45:	44 89 fa             	mov    %r15d,%edx
    2a48:	b9 01 00 00 00       	mov    $0x1,%ecx
    2a4d:	48 89 df             	mov    %rbx,%rdi
    2a50:	31 f6                	xor    %esi,%esi
    2a52:	49 89 e8             	mov    %rbp,%r8
    2a55:	e8 00 00 00 00       	call   2a5a <aot_func#11+0x4a>
    2a5a:	48 8b 55 00          	mov    0x0(%rbp),%rdx
    2a5e:	4c 89 e7             	mov    %r12,%rdi
    2a61:	4c 89 ee             	mov    %r13,%rsi
    2a64:	41 ff 16             	call   *(%r14)
    2a67:	80 7b 68 00          	cmpb   $0x0,0x68(%rbx)
    2a6b:	74 11                	je     2a7e <aot_func#11+0x6e>
    2a6d:	48 89 df             	mov    %rbx,%rdi
    2a70:	be 21 00 00 00       	mov    $0x21,%esi
    2a75:	e8 00 00 00 00       	call   2a7a <aot_func#11+0x6a>
    2a7a:	31 c0                	xor    %eax,%eax
    2a7c:	eb 03                	jmp    2a81 <aot_func#11+0x71>
    2a7e:	0f b7 c0             	movzwl %ax,%eax
    2a81:	48 83 c4 08          	add    $0x8,%rsp
    2a85:	5b                   	pop    %rbx
    2a86:	41 5c                	pop    %r12
    2a88:	41 5d                	pop    %r13
    2a8a:	41 5e                	pop    %r14
    2a8c:	41 5f                	pop    %r15
    2a8e:	5d                   	pop    %rbp
    2a8f:	c3                   	ret

0000000000002a90 <aot_func#12>:
    2a90:	55                   	push   %rbp
    2a91:	41 57                	push   %r15
    2a93:	41 56                	push   %r14
    2a95:	41 55                	push   %r13
    2a97:	41 54                	push   %r12
    2a99:	53                   	push   %rbx
    2a9a:	50                   	push   %rax
    2a9b:	41 89 d7             	mov    %edx,%r15d
    2a9e:	49 89 fc             	mov    %rdi,%r12
    2aa1:	48 8b 5f 10          	mov    0x10(%rdi),%rbx
    2aa5:	48 8b 6f 18          	mov    0x18(%rdi),%rbp
    2aa9:	4c 8b 73 28          	mov    0x28(%rbx),%r14
    2aad:	89 f2                	mov    %esi,%edx
    2aaf:	b9 01 00 00 00       	mov    $0x1,%ecx
    2ab4:	48 89 df             	mov    %rbx,%rdi
    2ab7:	31 f6                	xor    %esi,%esi
    2ab9:	49 89 e8             	mov    %rbp,%r8
    2abc:	e8 00 00 00 00       	call   2ac1 <aot_func#12+0x31>
    2ac1:	4c 8b 6d 00          	mov    0x0(%rbp),%r13
    2ac5:	44 89 fa             	mov    %r15d,%edx
    2ac8:	b9 01 00 00 00       	mov    $0x1,%ecx
    2acd:	48 89 df             	mov    %rbx,%rdi
    2ad0:	31 f6                	xor    %esi,%esi
    2ad2:	49 89 e8             	mov    %rbp,%r8
    2ad5:	e8 00 00 00 00       	call   2ada <aot_func#12+0x4a>
    2ada:	48 8b 55 00          	mov    0x0(%rbp),%rdx
    2ade:	4c 89 e7             	mov    %r12,%rdi
    2ae1:	4c 89 ee             	mov    %r13,%rsi
    2ae4:	41 ff 56 08          	call   *0x8(%r14)
    2ae8:	80 7b 68 00          	cmpb   $0x0,0x68(%rbx)
    2aec:	74 11                	je     2aff <aot_func#12+0x6f>
    2aee:	48 89 df             	mov    %rbx,%rdi
    2af1:	be 21 00 00 00       	mov    $0x21,%esi
    2af6:	e8 00 00 00 00       	call   2afb <aot_func#12+0x6b>
    2afb:	31 c0                	xor    %eax,%eax
    2afd:	eb 03                	jmp    2b02 <aot_func#12+0x72>
    2aff:	0f b7 c0             	movzwl %ax,%eax
    2b02:	48 83 c4 08          	add    $0x8,%rsp
    2b06:	5b                   	pop    %rbx
    2b07:	41 5c                	pop    %r12
    2b09:	41 5d                	pop    %r13
    2b0b:	41 5e                	pop    %r14
    2b0d:	41 5f                	pop    %r15
    2b0f:	5d                   	pop    %rbp
    2b10:	c3                   	ret
    2b11:	66 66 66 66 66 66 2e 	data16 data16 data16 data16 data16 cs nopw 0x0(%rax,%rax,1)
    2b18:	0f 1f 84 00 00 00 00 
    2b1f:	00 

0000000000002b20 <aot_func#13>:
    2b20:	53                   	push   %rbx
    2b21:	48 8b 5f 10          	mov    0x10(%rdi),%rbx
    2b25:	48 8b 43 28          	mov    0x28(%rbx),%rax
    2b29:	ff 50 10             	call   *0x10(%rax)
    2b2c:	80 7b 68 00          	cmpb   $0x0,0x68(%rbx)
    2b30:	74 11                	je     2b43 <aot_func#13+0x23>
    2b32:	48 89 df             	mov    %rbx,%rdi
    2b35:	be 21 00 00 00       	mov    $0x21,%esi
    2b3a:	e8 00 00 00 00       	call   2b3f <aot_func#13+0x1f>
    2b3f:	31 c0                	xor    %eax,%eax
    2b41:	5b                   	pop    %rbx
    2b42:	c3                   	ret
    2b43:	0f b7 c0             	movzwl %ax,%eax
    2b46:	5b                   	pop    %rbx
    2b47:	c3                   	ret
    2b48:	0f 1f 84 00 00 00 00 	nopl   0x0(%rax,%rax,1)
    2b4f:	00 

0000000000002b50 <aot_func#14>:
    2b50:	55                   	push   %rbp
    2b51:	41 57                	push   %r15
    2b53:	41 56                	push   %r14
    2b55:	41 55                	push   %r13
    2b57:	41 54                	push   %r12
    2b59:	53                   	push   %rbx
    2b5a:	50                   	push   %rax
    2b5b:	41 89 f7             	mov    %esi,%r15d
    2b5e:	48 89 fd             	mov    %rdi,%rbp
    2b61:	48 8b 5f 10          	mov    0x10(%rdi),%rbx
    2b65:	4c 8b 67 18          	mov    0x18(%rdi),%r12
    2b69:	4c 8b 6b 28          	mov    0x28(%rbx),%r13
    2b6d:	89 d2                	mov    %edx,%edx
    2b6f:	45 31 f6             	xor    %r14d,%r14d
    2b72:	b9 01 00 00 00       	mov    $0x1,%ecx
    2b77:	48 89 df             	mov    %rbx,%rdi
    2b7a:	31 f6                	xor    %esi,%esi
    2b7c:	4d 89 e0             	mov    %r12,%r8
    2b7f:	e8 00 00 00 00       	call   2b84 <aot_func#14+0x34>
    2b84:	49 8b 14 24          	mov    (%r12),%rdx
    2b88:	48 89 ef             	mov    %rbp,%rdi
    2b8b:	44 89 fe             	mov    %r15d,%esi
    2b8e:	41 ff 55 18          	call   *0x18(%r13)
    2b92:	80 7b 68 00          	cmpb   $0x0,0x68(%rbx)
    2b96:	74 0f                	je     2ba7 <aot_func#14+0x57>
    2b98:	48 89 df             	mov    %rbx,%rdi
    2b9b:	be 21 00 00 00       	mov    $0x21,%esi
    2ba0:	e8 00 00 00 00       	call   2ba5 <aot_func#14+0x55>
    2ba5:	eb 04                	jmp    2bab <aot_func#14+0x5b>
    2ba7:	44 0f b7 f0          	movzwl %ax,%r14d
    2bab:	44 89 f0             	mov    %r14d,%eax
    2bae:	48 83 c4 08          	add    $0x8,%rsp
    2bb2:	5b                   	pop    %rbx
    2bb3:	41 5c                	pop    %r12
    2bb5:	41 5d                	pop    %r13
    2bb7:	41 5e                	pop    %r14
    2bb9:	41 5f                	pop    %r15
    2bbb:	5d                   	pop    %rbp
    2bbc:	c3                   	ret
    2bbd:	0f 1f 00             	nopl   (%rax)

0000000000002bc0 <aot_func#15>:
    2bc0:	55                   	push   %rbp
    2bc1:	41 57                	push   %r15
    2bc3:	41 56                	push   %r14
    2bc5:	41 55                	push   %r13
    2bc7:	41 54                	push   %r12
    2bc9:	53                   	push   %rbx
    2bca:	50                   	push   %rax
    2bcb:	89 4c 24 04          	mov    %ecx,0x4(%rsp)
    2bcf:	49 89 d4             	mov    %rdx,%r12
    2bd2:	41 89 f5             	mov    %esi,%r13d
    2bd5:	48 89 fd             	mov    %rdi,%rbp
    2bd8:	48 8b 5f 10          	mov    0x10(%rdi),%rbx
    2bdc:	4c 8b 77 18          	mov    0x18(%rdi),%r14
    2be0:	4c 8b 7b 28          	mov    0x28(%rbx),%r15
    2be4:	44 89 c2             	mov    %r8d,%edx
    2be7:	b9 01 00 00 00       	mov    $0x1,%ecx
    2bec:	48 89 df             	mov    %rbx,%rdi
    2bef:	31 f6                	xor    %esi,%esi
    2bf1:	4d 89 f0             	mov    %r14,%r8
    2bf4:	e8 00 00 00 00       	call   2bf9 <aot_func#15+0x39>
    2bf9:	4d 8b 06             	mov    (%r14),%r8
    2bfc:	48 89 ef             	mov    %rbp,%rdi
    2bff:	44 89 ee             	mov    %r13d,%esi
    2c02:	4c 89 e2             	mov    %r12,%rdx
    2c05:	8b 4c 24 04          	mov    0x4(%rsp),%ecx
    2c09:	41 ff 57 20          	call   *0x20(%r15)
    2c0d:	80 7b 68 00          	cmpb   $0x0,0x68(%rbx)
    2c11:	74 11                	je     2c24 <aot_func#15+0x64>
    2c13:	48 89 df             	mov    %rbx,%rdi
    2c16:	be 21 00 00 00       	mov    $0x21,%esi
    2c1b:	e8 00 00 00 00       	call   2c20 <aot_func#15+0x60>
    2c20:	31 c0                	xor    %eax,%eax
    2c22:	eb 03                	jmp    2c27 <aot_func#15+0x67>
    2c24:	0f b7 c0             	movzwl %ax,%eax
    2c27:	48 83 c4 08          	add    $0x8,%rsp
    2c2b:	5b                   	pop    %rbx
    2c2c:	41 5c                	pop    %r12
    2c2e:	41 5d                	pop    %r13
    2c30:	41 5e                	pop    %r14
    2c32:	41 5f                	pop    %r15
    2c34:	5d                   	pop    %rbp
    2c35:	c3                   	ret
    2c36:	66 2e 0f 1f 84 00 00 	cs nopw 0x0(%rax,%rax,1)
    2c3d:	00 00 00 

0000000000002c40 <aot_func#16>:
    2c40:	55                   	push   %rbp
    2c41:	41 57                	push   %r15
    2c43:	41 56                	push   %r14
    2c45:	41 55                	push   %r13
    2c47:	41 54                	push   %r12
    2c49:	53                   	push   %rbx
    2c4a:	48 83 ec 18          	sub    $0x18,%rsp
    2c4e:	45 89 c5             	mov    %r8d,%r13d
    2c51:	89 4c 24 0c          	mov    %ecx,0xc(%rsp)
    2c55:	41 89 f4             	mov    %esi,%r12d
    2c58:	48 89 fd             	mov    %rdi,%rbp
    2c5b:	48 8b 5f 10          	mov    0x10(%rdi),%rbx
    2c5f:	4c 8b 77 18          	mov    0x18(%rdi),%r14
    2c63:	48 8b 43 28          	mov    0x28(%rbx),%rax
    2c67:	48 89 44 24 10       	mov    %rax,0x10(%rsp)
    2c6c:	89 d2                	mov    %edx,%edx
    2c6e:	b9 01 00 00 00       	mov    $0x1,%ecx
    2c73:	48 89 df             	mov    %rbx,%rdi
    2c76:	31 f6                	xor    %esi,%esi
    2c78:	4d 89 f0             	mov    %r14,%r8
    2c7b:	e8 00 00 00 00       	call   2c80 <aot_func#16+0x40>
    2c80:	4d 8b 3e             	mov    (%r14),%r15
    2c83:	44 89 ea             	mov    %r13d,%edx
    2c86:	b9 01 00 00 00       	mov    $0x1,%ecx
    2c8b:	48 89 df             	mov    %rbx,%rdi
    2c8e:	31 f6                	xor    %esi,%esi
    2c90:	4d 89 f0             	mov    %r14,%r8
    2c93:	e8 00 00 00 00       	call   2c98 <aot_func#16+0x58>
    2c98:	4d 8b 06             	mov    (%r14),%r8
    2c9b:	48 89 ef             	mov    %rbp,%rdi
    2c9e:	44 89 e6             	mov    %r12d,%esi
    2ca1:	4c 89 fa             	mov    %r15,%rdx
    2ca4:	8b 4c 24 0c          	mov    0xc(%rsp),%ecx
    2ca8:	48 8b 44 24 10       	mov    0x10(%rsp),%rax
    2cad:	ff 50 28             	call   *0x28(%rax)
    2cb0:	80 7b 68 00          	cmpb   $0x0,0x68(%rbx)
    2cb4:	74 11                	je     2cc7 <aot_func#16+0x87>
    2cb6:	48 89 df             	mov    %rbx,%rdi
    2cb9:	be 21 00 00 00       	mov    $0x21,%esi
    2cbe:	e8 00 00 00 00       	call   2cc3 <aot_func#16+0x83>
    2cc3:	31 c0                	xor    %eax,%eax
    2cc5:	eb 03                	jmp    2cca <aot_func#16+0x8a>
    2cc7:	0f b7 c0             	movzwl %ax,%eax
    2cca:	48 83 c4 18          	add    $0x18,%rsp
    2cce:	5b                   	pop    %rbx
    2ccf:	41 5c                	pop    %r12
    2cd1:	41 5d                	pop    %r13
    2cd3:	41 5e                	pop    %r14
    2cd5:	41 5f                	pop    %r15
    2cd7:	5d                   	pop    %rbp
    2cd8:	c3                   	ret
    2cd9:	0f 1f 80 00 00 00 00 	nopl   0x0(%rax)

0000000000002ce0 <aot_func#17>:
    2ce0:	53                   	push   %rbx
    2ce1:	48 8b 5f 10          	mov    0x10(%rdi),%rbx
    2ce5:	48 8b 43 28          	mov    0x28(%rbx),%rax
    2ce9:	ff 50 30             	call   *0x30(%rax)
    2cec:	31 c0                	xor    %eax,%eax
    2cee:	80 7b 68 00          	cmpb   $0x0,0x68(%rbx)
    2cf2:	be 21 00 00 00       	mov    $0x21,%esi
    2cf7:	0f 44 f0             	cmove  %eax,%esi
    2cfa:	48 89 df             	mov    %rbx,%rdi
    2cfd:	5b                   	pop    %rbx
    2cfe:	e9 00 00 00 00       	jmp    2d03 <aot_func#17+0x23>
    2d03:	66 66 66 66 2e 0f 1f 	data16 data16 data16 cs nopw 0x0(%rax,%rax,1)
    2d0a:	84 00 00 00 00 00 

0000000000002d10 <aot_func#18>:
    2d10:	48 8b 7f 10          	mov    0x10(%rdi),%rdi
    2d14:	31 f6                	xor    %esi,%esi
    2d16:	e9 00 00 00 00       	jmp    2d1b <aot_func#18+0xb>
    2d1b:	0f 1f 44 00 00       	nopl   0x0(%rax,%rax,1)

0000000000002d20 <aot_func#19>:
    2d20:	41 56                	push   %r14
    2d22:	53                   	push   %rbx
    2d23:	50                   	push   %rax
    2d24:	4c 8b 77 10          	mov    0x10(%rdi),%r14
    2d28:	85 f6                	test   %esi,%esi
    2d2a:	74 20                	je     2d4c <aot_func#19+0x2c>
    2d2c:	f7 c6 ff ff 00 80    	test   $0x8000ffff,%esi
    2d32:	74 24                	je     2d58 <aot_func#19+0x38>
    2d34:	31 db                	xor    %ebx,%ebx
    2d36:	4c 89 f7             	mov    %r14,%rdi
    2d39:	31 f6                	xor    %esi,%esi
    2d3b:	e8 00 00 00 00       	call   2d40 <aot_func#19+0x20>
    2d40:	4c 89 f7             	mov    %r14,%rdi
    2d43:	31 f6                	xor    %esi,%esi
    2d45:	e8 00 00 00 00       	call   2d4a <aot_func#19+0x2a>
    2d4a:	eb 42                	jmp    2d8e <aot_func#19+0x6e>
    2d4c:	41 8b 9e 68 01 00 00 	mov    0x168(%r14),%ebx
    2d53:	c1 e3 10             	shl    $0x10,%ebx
    2d56:	eb 36                	jmp    2d8e <aot_func#19+0x6e>
    2d58:	c1 ee 10             	shr    $0x10,%esi
    2d5b:	41 8b 9e 68 01 00 00 	mov    0x168(%r14),%ebx
    2d62:	4c 89 f7             	mov    %r14,%rdi
    2d65:	e8 00 00 00 00       	call   2d6a <aot_func#19+0x4a>
    2d6a:	84 c0                	test   %al,%al
    2d6c:	74 0a                	je     2d78 <aot_func#19+0x58>
    2d6e:	83 fb ff             	cmp    $0xffffffff,%ebx
    2d71:	74 05                	je     2d78 <aot_func#19+0x58>
    2d73:	c1 e3 10             	shl    $0x10,%ebx
    2d76:	eb 16                	jmp    2d8e <aot_func#19+0x6e>
    2d78:	49 8b 86 78 01 00 00 	mov    0x178(%r14),%rax
    2d7f:	c7 80 74 10 00 00 30 	movl   $0x30,0x1074(%rax)
    2d86:	00 00 00 
    2d89:	bb ff ff ff ff       	mov    $0xffffffff,%ebx
    2d8e:	89 d8                	mov    %ebx,%eax
    2d90:	48 83 c4 08          	add    $0x8,%rsp
    2d94:	5b                   	pop    %rbx
    2d95:	41 5e                	pop    %r14
    2d97:	c3                   	ret
    2d98:	0f 1f 84 00 00 00 00 	nopl   0x0(%rax,%rax,1)
    2d9f:	00 

0000000000002da0 <aot_func#20>:
    2da0:	c3                   	ret
    2da1:	66 66 66 66 66 66 2e 	data16 data16 data16 data16 data16 cs nopw 0x0(%rax,%rax,1)
    2da8:	0f 1f 84 00 00 00 00 
    2daf:	00 

0000000000002db0 <aot_func#21>:
    2db0:	e9 00 00 00 00       	jmp    2db5 <aot_func#21+0x5>
    2db5:	66 66 2e 0f 1f 84 00 	data16 cs nopw 0x0(%rax,%rax,1)
    2dbc:	00 00 00 00 

0000000000002dc0 <aot_func#22>:
    2dc0:	41 56                	push   %r14
    2dc2:	53                   	push   %rbx
    2dc3:	50                   	push   %rax
    2dc4:	89 d1                	mov    %edx,%ecx
    2dc6:	89 f2                	mov    %esi,%edx
    2dc8:	48 8b 5f 10          	mov    0x10(%rdi),%rbx
    2dcc:	44 8b b3 d0 01 00 00 	mov    0x1d0(%rbx),%r14d
    2dd3:	41 8d 46 f0          	lea    -0x10(%r14),%eax
    2dd7:	89 83 d0 01 00 00    	mov    %eax,0x1d0(%rbx)
    2ddd:	48 8b b3 78 01 00 00 	mov    0x178(%rbx),%rsi
    2de4:	89 4c 30 0c          	mov    %ecx,0xc(%rax,%rsi,1)
    2de8:	be 90 0d 00 00       	mov    $0xd90,%esi
    2ded:	e8 00 00 00 00       	call   2df2 <aot_func#22+0x32>
    2df2:	44 89 b3 d0 01 00 00 	mov    %r14d,0x1d0(%rbx)
    2df9:	48 83 c4 08          	add    $0x8,%rsp
    2dfd:	5b                   	pop    %rbx
    2dfe:	41 5e                	pop    %r14
    2e00:	c3                   	ret
    2e01:	66 66 66 66 66 66 2e 	data16 data16 data16 data16 data16 cs nopw 0x0(%rax,%rax,1)
    2e08:	0f 1f 84 00 00 00 00 
    2e0f:	00 

0000000000002e10 <aot_func#23>:
    2e10:	b8 78 10 00 00       	mov    $0x1078,%eax
    2e15:	c3                   	ret
    2e16:	66 2e 0f 1f 84 00 00 	cs nopw 0x0(%rax,%rax,1)
    2e1d:	00 00 00 

0000000000002e20 <aot_func#24>:
    2e20:	55                   	push   %rbp
    2e21:	41 57                	push   %r15
    2e23:	41 56                	push   %r14
    2e25:	41 55                	push   %r13
    2e27:	41 54                	push   %r12
    2e29:	53                   	push   %rbx
    2e2a:	48 83 ec 18          	sub    $0x18,%rsp
    2e2e:	49 89 fe             	mov    %rdi,%r14
    2e31:	4c 8b 6f 10          	mov    0x10(%rdi),%r13
    2e35:	4c 8b 7f 18          	mov    0x18(%rdi),%r15
    2e39:	49 8b 45 28          	mov    0x28(%r13),%rax
    2e3d:	48 89 44 24 08       	mov    %rax,0x8(%rsp)
    2e42:	49 8b 45 30          	mov    0x30(%r13),%rax
    2e46:	48 89 44 24 10       	mov    %rax,0x10(%rsp)
    2e4b:	49 8b 85 78 01 00 00 	mov    0x178(%r13),%rax
    2e52:	44 8b a0 78 10 00 00 	mov    0x1078(%rax),%r12d
    2e59:	eb 22                	jmp    2e7d <aot_func#24+0x5d>
    2e5b:	4c 89 f7             	mov    %r14,%rdi
    2e5e:	44 89 e6             	mov    %r12d,%esi
    2e61:	48 89 c2             	mov    %rax,%rdx
    2e64:	b9 01 00 00 00       	mov    $0x1,%ecx
    2e69:	48 8b 44 24 08       	mov    0x8(%rsp),%rax
    2e6e:	ff 14 e8             	call   *(%rax,%rbp,8)
    2e71:	49 8b 85 78 01 00 00 	mov    0x178(%r13),%rax
    2e78:	44 8b 64 03 34       	mov    0x34(%rbx,%rax,1),%r12d
    2e7d:	45 85 e4             	test   %r12d,%r12d
    2e80:	0f 84 17 01 00 00    	je     2f9d <aot_func#24+0x17d>
    2e86:	44 89 e3             	mov    %r12d,%ebx
    2e89:	8b 4c 03 14          	mov    0x14(%rbx,%rax,1),%ecx
    2e8d:	3b 4c 03 18          	cmp    0x18(%rbx,%rax,1),%ecx
    2e91:	74 5b                	je     2eee <aot_func#24+0xce>
    2e93:	48 63 54 03 20       	movslq 0x20(%rbx,%rax,1),%rdx
    2e98:	41 3b 95 e8 01 00 00 	cmp    0x1e8(%r13),%edx
    2e9f:	0f 83 18 02 00 00    	jae    30bd <aot_func#24+0x29d>
    2ea5:	49 8b 8c d5 f0 01 00 	mov    0x1f0(%r13,%rdx,8),%rcx
    2eac:	00 
    2ead:	83 f9 ff             	cmp    $0xffffffff,%ecx
    2eb0:	0f 84 3d 04 00 00    	je     32f3 <aot_func#24+0x4d3>
    2eb6:	48 63 c1             	movslq %ecx,%rax
    2eb9:	48 8b 74 24 10       	mov    0x10(%rsp),%rsi
    2ebe:	83 3c 86 00          	cmpl   $0x0,(%rsi,%rax,4)
    2ec2:	0f 85 ff 01 00 00    	jne    30c7 <aot_func#24+0x2a7>
    2ec8:	83 f9 06             	cmp    $0x6,%ecx
    2ecb:	0f 87 9f 00 00 00    	ja     2f70 <aot_func#24+0x150>
    2ed1:	45 89 27             	mov    %r12d,(%r15)
    2ed4:	49 c7 47 04 00 00 00 	movq   $0x0,0x4(%r15)
    2edb:	00 
    2edc:	4c 89 f7             	mov    %r14,%rdi
    2edf:	31 f6                	xor    %esi,%esi
    2ee1:	b9 03 00 00 00       	mov    $0x3,%ecx
    2ee6:	4d 89 f8             	mov    %r15,%r8
    2ee9:	e8 00 00 00 00       	call   2eee <aot_func#24+0xce>
    2eee:	49 8b 8d 78 01 00 00 	mov    0x178(%r13),%rcx
    2ef5:	8b 44 0b 04          	mov    0x4(%rbx,%rcx,1),%eax
    2ef9:	2b 44 0b 08          	sub    0x8(%rbx,%rcx,1),%eax
    2efd:	0f 84 6e ff ff ff    	je     2e71 <aot_func#24+0x51>
    2f03:	48 63 54 0b 24       	movslq 0x24(%rbx,%rcx,1),%rdx
    2f08:	41 3b 95 e8 01 00 00 	cmp    0x1e8(%r13),%edx
    2f0f:	0f 83 a8 01 00 00    	jae    30bd <aot_func#24+0x29d>
    2f15:	49 8b 8c d5 f0 01 00 	mov    0x1f0(%r13,%rdx,8),%rcx
    2f1c:	00 
    2f1d:	83 f9 ff             	cmp    $0xffffffff,%ecx
    2f20:	0f 84 cd 03 00 00    	je     32f3 <aot_func#24+0x4d3>
    2f26:	48 63 e9             	movslq %ecx,%rbp
    2f29:	48 8b 74 24 10       	mov    0x10(%rsp),%rsi
    2f2e:	83 3c ae 01          	cmpl   $0x1,(%rsi,%rbp,4)
    2f32:	0f 85 8f 01 00 00    	jne    30c7 <aot_func#24+0x2a7>
    2f38:	48 98                	cltq
    2f3a:	83 f9 06             	cmp    $0x6,%ecx
    2f3d:	0f 87 18 ff ff ff    	ja     2e5b <aot_func#24+0x3b>
    2f43:	45 89 27             	mov    %r12d,(%r15)
    2f46:	49 89 47 04          	mov    %rax,0x4(%r15)
    2f4a:	41 c7 47 0c 01 00 00 	movl   $0x1,0xc(%r15)
    2f51:	00 
    2f52:	4c 89 f7             	mov    %r14,%rdi
    2f55:	31 f6                	xor    %esi,%esi
    2f57:	b9 04 00 00 00       	mov    $0x4,%ecx
    2f5c:	4d 89 f8             	mov    %r15,%r8
    2f5f:	e8 00 00 00 00       	call   2f64 <aot_func#24+0x144>
    2f64:	e9 08 ff ff ff       	jmp    2e71 <aot_func#24+0x51>
    2f69:	0f 1f 80 00 00 00 00 	nopl   0x0(%rax)
    2f70:	4c 89 f7             	mov    %r14,%rdi
    2f73:	44 89 e6             	mov    %r12d,%esi
    2f76:	31 d2                	xor    %edx,%edx
    2f78:	31 c9                	xor    %ecx,%ecx
    2f7a:	48 8b 6c 24 08       	mov    0x8(%rsp),%rbp
    2f7f:	ff 54 c5 00          	call   *0x0(%rbp,%rax,8)
    2f83:	49 8b 8d 78 01 00 00 	mov    0x178(%r13),%rcx
    2f8a:	8b 44 0b 04          	mov    0x4(%rbx,%rcx,1),%eax
    2f8e:	2b 44 0b 08          	sub    0x8(%rbx,%rcx,1),%eax
    2f92:	0f 84 d9 fe ff ff    	je     2e71 <aot_func#24+0x51>
    2f98:	e9 66 ff ff ff       	jmp    2f03 <aot_func#24+0xe3>
    2f9d:	44 8b a0 7c 10 00 00 	mov    0x107c(%rax),%r12d
    2fa4:	4d 85 e4             	test   %r12,%r12
    2fa7:	74 27                	je     2fd0 <aot_func#24+0x1b0>
    2fa9:	41 8b 4c 04 14       	mov    0x14(%r12,%rax,1),%ecx
    2fae:	41 3b 4c 04 18       	cmp    0x18(%r12,%rax,1),%ecx
    2fb3:	0f 85 9a 00 00 00    	jne    3053 <aot_func#24+0x233>
    2fb9:	49 8b 8d 78 01 00 00 	mov    0x178(%r13),%rcx
    2fc0:	41 8b 44 0c 04       	mov    0x4(%r12,%rcx,1),%eax
    2fc5:	41 2b 44 0c 08       	sub    0x8(%r12,%rcx,1),%eax
    2fca:	0f 85 6b 01 00 00    	jne    313b <aot_func#24+0x31b>
    2fd0:	49 8b 85 78 01 00 00 	mov    0x178(%r13),%rax
    2fd7:	44 8b a0 00 0e 00 00 	mov    0xe00(%rax),%r12d
    2fde:	4d 85 e4             	test   %r12,%r12
    2fe1:	74 27                	je     300a <aot_func#24+0x1ea>
    2fe3:	41 8b 4c 04 14       	mov    0x14(%r12,%rax,1),%ecx
    2fe8:	41 3b 4c 04 18       	cmp    0x18(%r12,%rax,1),%ecx
    2fed:	0f 85 de 00 00 00    	jne    30d1 <aot_func#24+0x2b1>
    2ff3:	49 8b 8d 78 01 00 00 	mov    0x178(%r13),%rcx
    2ffa:	41 8b 44 0c 04       	mov    0x4(%r12,%rcx,1),%eax
    2fff:	41 2b 44 0c 08       	sub    0x8(%r12,%rcx,1),%eax
    3004:	0f 85 0b 02 00 00    	jne    3215 <aot_func#24+0x3f5>
    300a:	49 8b 85 78 01 00 00 	mov    0x178(%r13),%rax
    3011:	44 8b a0 78 0e 00 00 	mov    0xe78(%rax),%r12d
    3018:	4d 85 e4             	test   %r12,%r12
    301b:	74 27                	je     3044 <aot_func#24+0x224>
    301d:	41 8b 4c 04 14       	mov    0x14(%r12,%rax,1),%ecx
    3022:	41 3b 4c 04 18       	cmp    0x18(%r12,%rax,1),%ecx
    3027:	0f 85 7e 01 00 00    	jne    31ab <aot_func#24+0x38b>
    302d:	49 8b 8d 78 01 00 00 	mov    0x178(%r13),%rcx
    3034:	41 8b 44 0c 04       	mov    0x4(%r12,%rcx,1),%eax
    3039:	41 2b 44 0c 08       	sub    0x8(%r12,%rcx,1),%eax
    303e:	0f 85 41 02 00 00    	jne    3285 <aot_func#24+0x465>
    3044:	48 83 c4 18          	add    $0x18,%rsp
    3048:	5b                   	pop    %rbx
    3049:	41 5c                	pop    %r12
    304b:	41 5d                	pop    %r13
    304d:	41 5e                	pop    %r14
    304f:	41 5f                	pop    %r15
    3051:	5d                   	pop    %rbp
    3052:	c3                   	ret
    3053:	49 63 54 04 20       	movslq 0x20(%r12,%rax,1),%rdx
    3058:	be 08 00 00 00       	mov    $0x8,%esi
    305d:	41 3b 95 e8 01 00 00 	cmp    0x1e8(%r13),%edx
    3064:	0f 83 8e 02 00 00    	jae    32f8 <aot_func#24+0x4d8>
    306a:	49 8b 84 d5 f0 01 00 	mov    0x1f0(%r13,%rdx,8),%rax
    3071:	00 
    3072:	83 f8 ff             	cmp    $0xffffffff,%eax
    3075:	0f 84 78 02 00 00    	je     32f3 <aot_func#24+0x4d3>
    307b:	48 63 e8             	movslq %eax,%rbp
    307e:	be 06 00 00 00       	mov    $0x6,%esi
    3083:	48 8b 4c 24 10       	mov    0x10(%rsp),%rcx
    3088:	83 3c a9 00          	cmpl   $0x0,(%rcx,%rbp,4)
    308c:	0f 85 66 02 00 00    	jne    32f8 <aot_func#24+0x4d8>
    3092:	83 f8 06             	cmp    $0x6,%eax
    3095:	0f 87 73 02 00 00    	ja     330e <aot_func#24+0x4ee>
    309b:	45 89 27             	mov    %r12d,(%r15)
    309e:	49 c7 47 04 00 00 00 	movq   $0x0,0x4(%r15)
    30a5:	00 
    30a6:	4c 89 f7             	mov    %r14,%rdi
    30a9:	31 f6                	xor    %esi,%esi
    30ab:	b9 03 00 00 00       	mov    $0x3,%ecx
    30b0:	4d 89 f8             	mov    %r15,%r8
    30b3:	e8 00 00 00 00       	call   30b8 <aot_func#24+0x298>
    30b8:	e9 fc fe ff ff       	jmp    2fb9 <aot_func#24+0x199>
    30bd:	be 08 00 00 00       	mov    $0x8,%esi
    30c2:	e9 31 02 00 00       	jmp    32f8 <aot_func#24+0x4d8>
    30c7:	be 06 00 00 00       	mov    $0x6,%esi
    30cc:	e9 27 02 00 00       	jmp    32f8 <aot_func#24+0x4d8>
    30d1:	49 63 54 04 20       	movslq 0x20(%r12,%rax,1),%rdx
    30d6:	be 08 00 00 00       	mov    $0x8,%esi
    30db:	41 3b 95 e8 01 00 00 	cmp    0x1e8(%r13),%edx
    30e2:	0f 83 10 02 00 00    	jae    32f8 <aot_func#24+0x4d8>
    30e8:	49 8b 84 d5 f0 01 00 	mov    0x1f0(%r13,%rdx,8),%rax
    30ef:	00 
    30f0:	83 f8 ff             	cmp    $0xffffffff,%eax
    30f3:	0f 84 fa 01 00 00    	je     32f3 <aot_func#24+0x4d3>
    30f9:	48 63 e8             	movslq %eax,%rbp
    30fc:	be 06 00 00 00       	mov    $0x6,%esi
    3101:	48 8b 4c 24 10       	mov    0x10(%rsp),%rcx
    3106:	83 3c a9 00          	cmpl   $0x0,(%rcx,%rbp,4)
    310a:	0f 85 e8 01 00 00    	jne    32f8 <aot_func#24+0x4d8>
    3110:	83 f8 06             	cmp    $0x6,%eax
    3113:	0f 87 27 02 00 00    	ja     3340 <aot_func#24+0x520>
    3119:	45 89 27             	mov    %r12d,(%r15)
    311c:	49 c7 47 04 00 00 00 	movq   $0x0,0x4(%r15)
    3123:	00 
    3124:	4c 89 f7             	mov    %r14,%rdi
    3127:	31 f6                	xor    %esi,%esi
    3129:	b9 03 00 00 00       	mov    $0x3,%ecx
    312e:	4d 89 f8             	mov    %r15,%r8
    3131:	e8 00 00 00 00       	call   3136 <aot_func#24+0x316>
    3136:	e9 b8 fe ff ff       	jmp    2ff3 <aot_func#24+0x1d3>
    313b:	49 63 54 0c 24       	movslq 0x24(%r12,%rcx,1),%rdx
    3140:	be 08 00 00 00       	mov    $0x8,%esi
    3145:	41 3b 95 e8 01 00 00 	cmp    0x1e8(%r13),%edx
    314c:	0f 83 a6 01 00 00    	jae    32f8 <aot_func#24+0x4d8>
    3152:	49 8b 8c d5 f0 01 00 	mov    0x1f0(%r13,%rdx,8),%rcx
    3159:	00 
    315a:	83 f9 ff             	cmp    $0xffffffff,%ecx
    315d:	0f 84 90 01 00 00    	je     32f3 <aot_func#24+0x4d3>
    3163:	48 63 e9             	movslq %ecx,%rbp
    3166:	be 06 00 00 00       	mov    $0x6,%esi
    316b:	48 8b 7c 24 10       	mov    0x10(%rsp),%rdi
    3170:	83 3c af 01          	cmpl   $0x1,(%rdi,%rbp,4)
    3174:	0f 85 7e 01 00 00    	jne    32f8 <aot_func#24+0x4d8>
    317a:	48 98                	cltq
    317c:	83 f9 06             	cmp    $0x6,%ecx
    317f:	0f 87 a0 01 00 00    	ja     3325 <aot_func#24+0x505>
    3185:	45 89 27             	mov    %r12d,(%r15)
    3188:	49 89 47 04          	mov    %rax,0x4(%r15)
    318c:	41 c7 47 0c 01 00 00 	movl   $0x1,0xc(%r15)
    3193:	00 
    3194:	4c 89 f7             	mov    %r14,%rdi
    3197:	31 f6                	xor    %esi,%esi
    3199:	b9 04 00 00 00       	mov    $0x4,%ecx
    319e:	4d 89 f8             	mov    %r15,%r8
    31a1:	e8 00 00 00 00       	call   31a6 <aot_func#24+0x386>
    31a6:	e9 25 fe ff ff       	jmp    2fd0 <aot_func#24+0x1b0>
    31ab:	49 63 54 04 20       	movslq 0x20(%r12,%rax,1),%rdx
    31b0:	be 08 00 00 00       	mov    $0x8,%esi
    31b5:	41 3b 95 e8 01 00 00 	cmp    0x1e8(%r13),%edx
    31bc:	0f 83 36 01 00 00    	jae    32f8 <aot_func#24+0x4d8>
    31c2:	49 8b 84 d5 f0 01 00 	mov    0x1f0(%r13,%rdx,8),%rax
    31c9:	00 
    31ca:	83 f8 ff             	cmp    $0xffffffff,%eax
    31cd:	0f 84 20 01 00 00    	je     32f3 <aot_func#24+0x4d3>
    31d3:	48 63 e8             	movslq %eax,%rbp
    31d6:	be 06 00 00 00       	mov    $0x6,%esi
    31db:	48 8b 4c 24 10       	mov    0x10(%rsp),%rcx
    31e0:	83 3c a9 00          	cmpl   $0x0,(%rcx,%rbp,4)
    31e4:	0f 85 0e 01 00 00    	jne    32f8 <aot_func#24+0x4d8>
    31ea:	83 f8 06             	cmp    $0x6,%eax
    31ed:	0f 87 7f 01 00 00    	ja     3372 <aot_func#24+0x552>
    31f3:	45 89 27             	mov    %r12d,(%r15)
    31f6:	49 c7 47 04 00 00 00 	movq   $0x0,0x4(%r15)
    31fd:	00 
    31fe:	4c 89 f7             	mov    %r14,%rdi
    3201:	31 f6                	xor    %esi,%esi
    3203:	b9 03 00 00 00       	mov    $0x3,%ecx
    3208:	4d 89 f8             	mov    %r15,%r8
    320b:	e8 00 00 00 00       	call   3210 <aot_func#24+0x3f0>
    3210:	e9 18 fe ff ff       	jmp    302d <aot_func#24+0x20d>
    3215:	49 63 54 0c 24       	movslq 0x24(%r12,%rcx,1),%rdx
    321a:	be 08 00 00 00       	mov    $0x8,%esi
    321f:	41 3b 95 e8 01 00 00 	cmp    0x1e8(%r13),%edx
    3226:	0f 83 cc 00 00 00    	jae    32f8 <aot_func#24+0x4d8>
    322c:	49 8b 8c d5 f0 01 00 	mov    0x1f0(%r13,%rdx,8),%rcx
    3233:	00 
    3234:	83 f9 ff             	cmp    $0xffffffff,%ecx
    3237:	0f 84 b6 00 00 00    	je     32f3 <aot_func#24+0x4d3>
    323d:	48 63 e9             	movslq %ecx,%rbp
    3240:	be 06 00 00 00       	mov    $0x6,%esi
    3245:	48 8b 7c 24 10       	mov    0x10(%rsp),%rdi
    324a:	83 3c af 01          	cmpl   $0x1,(%rdi,%rbp,4)
    324e:	0f 85 a4 00 00 00    	jne    32f8 <aot_func#24+0x4d8>
    3254:	48 98                	cltq
    3256:	83 f9 06             	cmp    $0x6,%ecx
    3259:	0f 87 f8 00 00 00    	ja     3357 <aot_func#24+0x537>
    325f:	45 89 27             	mov    %r12d,(%r15)
    3262:	49 89 47 04          	mov    %rax,0x4(%r15)
    3266:	41 c7 47 0c 01 00 00 	movl   $0x1,0xc(%r15)
    326d:	00 
    326e:	4c 89 f7             	mov    %r14,%rdi
    3271:	31 f6                	xor    %esi,%esi
    3273:	b9 04 00 00 00       	mov    $0x4,%ecx
    3278:	4d 89 f8             	mov    %r15,%r8
    327b:	e8 00 00 00 00       	call   3280 <aot_func#24+0x460>
    3280:	e9 85 fd ff ff       	jmp    300a <aot_func#24+0x1ea>
    3285:	49 63 54 0c 24       	movslq 0x24(%r12,%rcx,1),%rdx
    328a:	be 08 00 00 00       	mov    $0x8,%esi
    328f:	41 3b 95 e8 01 00 00 	cmp    0x1e8(%r13),%edx
    3296:	73 60                	jae    32f8 <aot_func#24+0x4d8>
    3298:	49 8b 8c d5 f0 01 00 	mov    0x1f0(%r13,%rdx,8),%rcx
    329f:	00 
    32a0:	83 f9 ff             	cmp    $0xffffffff,%ecx
    32a3:	74 4e                	je     32f3 <aot_func#24+0x4d3>
    32a5:	48 63 f9             	movslq %ecx,%rdi
    32a8:	be 06 00 00 00       	mov    $0x6,%esi
    32ad:	48 8b 6c 24 10       	mov    0x10(%rsp),%rbp
    32b2:	83 7c bd 00 01       	cmpl   $0x1,0x0(%rbp,%rdi,4)
    32b7:	75 3f                	jne    32f8 <aot_func#24+0x4d8>
    32b9:	48 98                	cltq
    32bb:	83 f9 06             	cmp    $0x6,%ecx
    32be:	0f 87 c5 00 00 00    	ja     3389 <aot_func#24+0x569>
    32c4:	45 89 27             	mov    %r12d,(%r15)
    32c7:	49 89 47 04          	mov    %rax,0x4(%r15)
    32cb:	41 c7 47 0c 01 00 00 	movl   $0x1,0xc(%r15)
    32d2:	00 
    32d3:	4c 89 f7             	mov    %r14,%rdi
    32d6:	31 f6                	xor    %esi,%esi
    32d8:	b9 04 00 00 00       	mov    $0x4,%ecx
    32dd:	4d 89 f8             	mov    %r15,%r8
    32e0:	48 83 c4 18          	add    $0x18,%rsp
    32e4:	5b                   	pop    %rbx
    32e5:	41 5c                	pop    %r12
    32e7:	41 5d                	pop    %r13
    32e9:	41 5e                	pop    %r14
    32eb:	41 5f                	pop    %r15
    32ed:	5d                   	pop    %rbp
    32ee:	e9 00 00 00 00       	jmp    32f3 <aot_func#24+0x4d3>
    32f3:	be 09 00 00 00       	mov    $0x9,%esi
    32f8:	4c 89 ef             	mov    %r13,%rdi
    32fb:	48 83 c4 18          	add    $0x18,%rsp
    32ff:	5b                   	pop    %rbx
    3300:	41 5c                	pop    %r12
    3302:	41 5d                	pop    %r13
    3304:	41 5e                	pop    %r14
    3306:	41 5f                	pop    %r15
    3308:	5d                   	pop    %rbp
    3309:	e9 00 00 00 00       	jmp    330e <aot_func#24+0x4ee>
    330e:	4c 89 f7             	mov    %r14,%rdi
    3311:	44 89 e6             	mov    %r12d,%esi
    3314:	31 d2                	xor    %edx,%edx
    3316:	31 c9                	xor    %ecx,%ecx
    3318:	48 8b 44 24 08       	mov    0x8(%rsp),%rax
    331d:	ff 14 e8             	call   *(%rax,%rbp,8)
    3320:	e9 94 fc ff ff       	jmp    2fb9 <aot_func#24+0x199>
    3325:	4c 89 f7             	mov    %r14,%rdi
    3328:	44 89 e6             	mov    %r12d,%esi
    332b:	48 89 c2             	mov    %rax,%rdx
    332e:	b9 01 00 00 00       	mov    $0x1,%ecx
    3333:	48 8b 44 24 08       	mov    0x8(%rsp),%rax
    3338:	ff 14 e8             	call   *(%rax,%rbp,8)
    333b:	e9 90 fc ff ff       	jmp    2fd0 <aot_func#24+0x1b0>
    3340:	4c 89 f7             	mov    %r14,%rdi
    3343:	44 89 e6             	mov    %r12d,%esi
    3346:	31 d2                	xor    %edx,%edx
    3348:	31 c9                	xor    %ecx,%ecx
    334a:	48 8b 44 24 08       	mov    0x8(%rsp),%rax
    334f:	ff 14 e8             	call   *(%rax,%rbp,8)
    3352:	e9 9c fc ff ff       	jmp    2ff3 <aot_func#24+0x1d3>
    3357:	4c 89 f7             	mov    %r14,%rdi
    335a:	44 89 e6             	mov    %r12d,%esi
    335d:	48 89 c2             	mov    %rax,%rdx
    3360:	b9 01 00 00 00       	mov    $0x1,%ecx
    3365:	48 8b 44 24 08       	mov    0x8(%rsp),%rax
    336a:	ff 14 e8             	call   *(%rax,%rbp,8)
    336d:	e9 98 fc ff ff       	jmp    300a <aot_func#24+0x1ea>
    3372:	4c 89 f7             	mov    %r14,%rdi
    3375:	44 89 e6             	mov    %r12d,%esi
    3378:	31 d2                	xor    %edx,%edx
    337a:	31 c9                	xor    %ecx,%ecx
    337c:	48 8b 44 24 08       	mov    0x8(%rsp),%rax
    3381:	ff 14 e8             	call   *(%rax,%rbp,8)
    3384:	e9 a4 fc ff ff       	jmp    302d <aot_func#24+0x20d>
    3389:	48 8b 4c 24 08       	mov    0x8(%rsp),%rcx
    338e:	4c 8b 04 f9          	mov    (%rcx,%rdi,8),%r8
    3392:	4c 89 f7             	mov    %r14,%rdi
    3395:	44 89 e6             	mov    %r12d,%esi
    3398:	48 89 c2             	mov    %rax,%rdx
    339b:	b9 01 00 00 00       	mov    $0x1,%ecx
    33a0:	48 83 c4 18          	add    $0x18,%rsp
    33a4:	5b                   	pop    %rbx
    33a5:	41 5c                	pop    %r12
    33a7:	41 5d                	pop    %r13
    33a9:	41 5e                	pop    %r14
    33ab:	41 5f                	pop    %r15
    33ad:	5d                   	pop    %rbp
    33ae:	41 ff e0             	jmp    *%r8
    33b1:	66 66 66 66 66 66 2e 	data16 data16 data16 data16 data16 cs nopw 0x0(%rax,%rax,1)
    33b8:	0f 1f 84 00 00 00 00 
    33bf:	00 

00000000000033c0 <aot_func#25>:
    33c0:	48 8b 47 10          	mov    0x10(%rdi),%rax
    33c4:	48 8b 80 78 01 00 00 	mov    0x178(%rax),%rax
    33cb:	89 f1                	mov    %esi,%ecx
    33cd:	8b 14 08             	mov    (%rax,%rcx,1),%edx
    33d0:	8b 74 08 3c          	mov    0x3c(%rax,%rcx,1),%esi
    33d4:	8d 7e ff             	lea    -0x1(%rsi),%edi
    33d7:	09 f7                	or     %esi,%edi
    33d9:	89 7c 08 3c          	mov    %edi,0x3c(%rax,%rcx,1)
    33dd:	f6 c2 08             	test   $0x8,%dl
    33e0:	75 20                	jne    3402 <aot_func#25+0x42>
    33e2:	48 c7 44 01 04 00 00 	movq   $0x0,0x4(%rcx,%rax,1)
    33e9:	00 00 
    33eb:	8b 54 01 28          	mov    0x28(%rcx,%rax,1),%edx
    33ef:	89 54 01 18          	mov    %edx,0x18(%rcx,%rax,1)
    33f3:	89 54 01 14          	mov    %edx,0x14(%rcx,%rax,1)
    33f7:	03 54 01 2c          	add    0x2c(%rcx,%rax,1),%edx
    33fb:	89 54 01 10          	mov    %edx,0x10(%rcx,%rax,1)
    33ff:	31 c0                	xor    %eax,%eax
    3401:	c3                   	ret
    3402:	83 ca 20             	or     $0x20,%edx
    3405:	89 14 08             	mov    %edx,(%rax,%rcx,1)
    3408:	b8 ff ff ff ff       	mov    $0xffffffff,%eax
    340d:	c3                   	ret
    340e:	66 90                	xchg   %ax,%ax

0000000000003410 <aot_func#26>:
    3410:	55                   	push   %rbp
    3411:	41 57                	push   %r15
    3413:	41 56                	push   %r14
    3415:	41 55                	push   %r13
    3417:	41 54                	push   %r12
    3419:	53                   	push   %rbx
    341a:	50                   	push   %rax
    341b:	41 89 d5             	mov    %edx,%r13d
    341e:	41 89 f1             	mov    %esi,%r9d
    3421:	49 89 ff             	mov    %rdi,%r15
    3424:	4c 8b 77 10          	mov    0x10(%rdi),%r14
    3428:	4c 8b 67 18          	mov    0x18(%rdi),%r12
    342c:	4d 8b 46 28          	mov    0x28(%r14),%r8
    3430:	4d 8b 56 30          	mov    0x30(%r14),%r10
    3434:	49 8b 86 78 01 00 00 	mov    0x178(%r14),%rax
    343b:	89 ca                	mov    %ecx,%edx
    343d:	8b 7c 02 10          	mov    0x10(%rdx,%rax,1),%edi
    3441:	85 ff                	test   %edi,%edi
    3443:	0f 84 86 00 00 00    	je     34cf <aot_func#26+0xbf>
    3449:	48 8d 5a 14          	lea    0x14(%rdx),%rbx
    344d:	8b 34 18             	mov    (%rax,%rbx,1),%esi
    3450:	29 f7                	sub    %esi,%edi
    3452:	44 39 ef             	cmp    %r13d,%edi
    3455:	0f 83 c8 00 00 00    	jae    3523 <aot_func#26+0x113>
    345b:	48 63 54 02 20       	movslq 0x20(%rdx,%rax,1),%rdx
    3460:	be 08 00 00 00       	mov    $0x8,%esi
    3465:	41 3b 96 e8 01 00 00 	cmp    0x1e8(%r14),%edx
    346c:	0f 83 91 01 00 00    	jae    3603 <aot_func#26+0x1f3>
    3472:	49 8b 84 d6 f0 01 00 	mov    0x1f0(%r14,%rdx,8),%rax
    3479:	00 
    347a:	83 f8 ff             	cmp    $0xffffffff,%eax
    347d:	0f 84 7b 01 00 00    	je     35fe <aot_func#26+0x1ee>
    3483:	48 63 f8             	movslq %eax,%rdi
    3486:	be 06 00 00 00       	mov    $0x6,%esi
    348b:	41 83 3c ba 00       	cmpl   $0x0,(%r10,%rdi,4)
    3490:	0f 85 6d 01 00 00    	jne    3603 <aot_func#26+0x1f3>
    3496:	83 f8 06             	cmp    $0x6,%eax
    3499:	0f 87 7d 01 00 00    	ja     361c <aot_func#26+0x20c>
    349f:	c5 f9 6e c1          	vmovd  %ecx,%xmm0
    34a3:	c4 c3 79 22 c1 01    	vpinsrd $0x1,%r9d,%xmm0,%xmm0
    34a9:	45 89 6c 24 08       	mov    %r13d,0x8(%r12)
    34ae:	c4 c1 79 d6 04 24    	vmovq  %xmm0,(%r12)
    34b4:	4c 89 ff             	mov    %r15,%rdi
    34b7:	31 f6                	xor    %esi,%esi
    34b9:	b9 03 00 00 00       	mov    $0x3,%ecx
    34be:	4d 89 e0             	mov    %r12,%r8
    34c1:	e8 00 00 00 00       	call   34c6 <aot_func#26+0xb6>
    34c6:	41 8b 04 24          	mov    (%r12),%eax
    34ca:	e9 3e 01 00 00       	jmp    360d <aot_func#26+0x1fd>
    34cf:	8b 34 10             	mov    (%rax,%rdx,1),%esi
    34d2:	8b 7c 10 3c          	mov    0x3c(%rax,%rdx,1),%edi
    34d6:	8d 6f ff             	lea    -0x1(%rdi),%ebp
    34d9:	09 fd                	or     %edi,%ebp
    34db:	89 6c 10 3c          	mov    %ebp,0x3c(%rax,%rdx,1)
    34df:	40 f6 c6 08          	test   $0x8,%sil
    34e3:	0f 85 ab 00 00 00    	jne    3594 <aot_func#26+0x184>
    34e9:	48 c7 44 10 04 00 00 	movq   $0x0,0x4(%rax,%rdx,1)
    34f0:	00 00 
    34f2:	8b 74 10 28          	mov    0x28(%rax,%rdx,1),%esi
    34f6:	89 74 10 18          	mov    %esi,0x18(%rax,%rdx,1)
    34fa:	48 8d 5a 14          	lea    0x14(%rdx),%rbx
    34fe:	89 74 10 14          	mov    %esi,0x14(%rax,%rdx,1)
    3502:	03 74 10 2c          	add    0x2c(%rax,%rdx,1),%esi
    3506:	89 74 10 10          	mov    %esi,0x10(%rax,%rdx,1)
    350a:	49 8b 86 78 01 00 00 	mov    0x178(%r14),%rax
    3511:	8b 7c 10 10          	mov    0x10(%rax,%rdx,1),%edi
    3515:	8b 34 18             	mov    (%rax,%rbx,1),%esi
    3518:	29 f7                	sub    %esi,%edi
    351a:	44 39 ef             	cmp    %r13d,%edi
    351d:	0f 82 38 ff ff ff    	jb     345b <aot_func#26+0x4b>
    3523:	83 7c 02 40 00       	cmpl   $0x0,0x40(%rdx,%rax,1)
    3528:	78 45                	js     356f <aot_func#26+0x15f>
    352a:	45 85 ed             	test   %r13d,%r13d
    352d:	74 40                	je     356f <aot_func#26+0x15f>
    352f:	48 89 1c 24          	mov    %rbx,(%rsp)
    3533:	4d 89 e3             	mov    %r12,%r11
    3536:	47 8d 24 29          	lea    (%r9,%r13,1),%r12d
    353a:	31 ed                	xor    %ebp,%ebp
    353c:	bf ff ff ff ff       	mov    $0xffffffff,%edi
    3541:	66 66 66 66 66 66 2e 	data16 data16 data16 data16 data16 cs nopw 0x0(%rax,%rax,1)
    3548:	0f 1f 84 00 00 00 00 
    354f:	00 
    3550:	41 8d 1c 3c          	lea    (%r12,%rdi,1),%ebx
    3554:	80 3c 18 0a          	cmpb   $0xa,(%rax,%rbx,1)
    3558:	74 42                	je     359c <aot_func#26+0x18c>
    355a:	ff c5                	inc    %ebp
    355c:	ff cf                	dec    %edi
    355e:	41 39 ed             	cmp    %ebp,%r13d
    3561:	75 ed                	jne    3550 <aot_func#26+0x140>
    3563:	44 89 ed             	mov    %r13d,%ebp
    3566:	45 31 ed             	xor    %r13d,%r13d
    3569:	48 8b 1c 24          	mov    (%rsp),%rbx
    356d:	eb 06                	jmp    3575 <aot_func#26+0x165>
    356f:	44 89 ed             	mov    %r13d,%ebp
    3572:	45 31 ed             	xor    %r13d,%r13d
    3575:	4c 89 ff             	mov    %r15,%rdi
    3578:	44 89 ca             	mov    %r9d,%edx
    357b:	89 e9                	mov    %ebp,%ecx
    357d:	e8 00 00 00 00       	call   3582 <aot_func#26+0x172>
    3582:	49 8b 86 78 01 00 00 	mov    0x178(%r14),%rax
    3589:	01 2c 18             	add    %ebp,(%rax,%rbx,1)
    358c:	41 01 ed             	add    %ebp,%r13d
    358f:	44 89 e8             	mov    %r13d,%eax
    3592:	eb 79                	jmp    360d <aot_func#26+0x1fd>
    3594:	83 ce 20             	or     $0x20,%esi
    3597:	89 34 10             	mov    %esi,(%rax,%rdx,1)
    359a:	eb 6f                	jmp    360b <aot_func#26+0x1fb>
    359c:	48 63 54 02 20       	movslq 0x20(%rdx,%rax,1),%rdx
    35a1:	be 08 00 00 00       	mov    $0x8,%esi
    35a6:	41 3b 96 e8 01 00 00 	cmp    0x1e8(%r14),%edx
    35ad:	73 54                	jae    3603 <aot_func#26+0x1f3>
    35af:	49 8b 84 d6 f0 01 00 	mov    0x1f0(%r14,%rdx,8),%rax
    35b6:	00 
    35b7:	83 f8 ff             	cmp    $0xffffffff,%eax
    35ba:	74 42                	je     35fe <aot_func#26+0x1ee>
    35bc:	4c 89 db             	mov    %r11,%rbx
    35bf:	4c 63 d8             	movslq %eax,%r11
    35c2:	be 06 00 00 00       	mov    $0x6,%esi
    35c7:	43 83 3c 9a 00       	cmpl   $0x0,(%r10,%r11,4)
    35cc:	75 35                	jne    3603 <aot_func#26+0x1f3>
    35ce:	41 29 ed             	sub    %ebp,%r13d
    35d1:	83 f8 06             	cmp    $0x6,%eax
    35d4:	77 65                	ja     363b <aot_func#26+0x22b>
    35d6:	c5 f9 6e c1          	vmovd  %ecx,%xmm0
    35da:	c4 c3 79 22 c1 01    	vpinsrd $0x1,%r9d,%xmm0,%xmm0
    35e0:	44 89 6b 08          	mov    %r13d,0x8(%rbx)
    35e4:	c5 f9 d6 03          	vmovq  %xmm0,(%rbx)
    35e8:	4c 89 ff             	mov    %r15,%rdi
    35eb:	31 f6                	xor    %esi,%esi
    35ed:	b9 03 00 00 00       	mov    $0x3,%ecx
    35f2:	49 89 d8             	mov    %rbx,%r8
    35f5:	e8 00 00 00 00       	call   35fa <aot_func#26+0x1ea>
    35fa:	8b 03                	mov    (%rbx),%eax
    35fc:	eb 4c                	jmp    364a <aot_func#26+0x23a>
    35fe:	be 09 00 00 00       	mov    $0x9,%esi
    3603:	4c 89 f7             	mov    %r14,%rdi
    3606:	e8 00 00 00 00       	call   360b <aot_func#26+0x1fb>
    360b:	31 c0                	xor    %eax,%eax
    360d:	48 83 c4 08          	add    $0x8,%rsp
    3611:	5b                   	pop    %rbx
    3612:	41 5c                	pop    %r12
    3614:	41 5d                	pop    %r13
    3616:	41 5e                	pop    %r14
    3618:	41 5f                	pop    %r15
    361a:	5d                   	pop    %rbp
    361b:	c3                   	ret
    361c:	49 8b 04 f8          	mov    (%r8,%rdi,8),%rax
    3620:	4c 89 ff             	mov    %r15,%rdi
    3623:	89 ce                	mov    %ecx,%esi
    3625:	44 89 ca             	mov    %r9d,%edx
    3628:	44 89 e9             	mov    %r13d,%ecx
    362b:	48 83 c4 08          	add    $0x8,%rsp
    362f:	5b                   	pop    %rbx
    3630:	41 5c                	pop    %r12
    3632:	41 5d                	pop    %r13
    3634:	41 5e                	pop    %r14
    3636:	41 5f                	pop    %r15
    3638:	5d                   	pop    %rbp
    3639:	ff e0                	jmp    *%rax
    363b:	4c 89 ff             	mov    %r15,%rdi
    363e:	89 ce                	mov    %ecx,%esi
    3640:	44 89 ca             	mov    %r9d,%edx
    3643:	44 89 e9             	mov    %r13d,%ecx
    3646:	43 ff 14 d8          	call   *(%r8,%r11,8)
    364a:	44 39 e8             	cmp    %r13d,%eax
    364d:	72 be                	jb     360d <aot_func#26+0x1fd>
    364f:	41 29 ec             	sub    %ebp,%r12d
    3652:	49 8b 86 78 01 00 00 	mov    0x178(%r14),%rax
    3659:	48 8b 1c 24          	mov    (%rsp),%rbx
    365d:	8b 34 18             	mov    (%rax,%rbx,1),%esi
    3660:	45 89 e1             	mov    %r12d,%r9d
    3663:	e9 0d ff ff ff       	jmp    3575 <aot_func#26+0x165>
    3668:	0f 1f 84 00 00 00 00 	nopl   0x0(%rax,%rax,1)
    366f:	00 

0000000000003670 <aot_func#27>:
    3670:	55                   	push   %rbp
    3671:	41 57                	push   %r15
    3673:	41 56                	push   %r14
    3675:	41 55                	push   %r13
    3677:	41 54                	push   %r12
    3679:	53                   	push   %rbx
    367a:	48 83 ec 28          	sub    $0x28,%rsp
    367e:	41 89 cf             	mov    %ecx,%r15d
    3681:	41 89 f2             	mov    %esi,%r10d
    3684:	49 89 fc             	mov    %rdi,%r12
    3687:	48 8b 5f 10          	mov    0x10(%rdi),%rbx
    368b:	4c 8b 77 18          	mov    0x18(%rdi),%r14
    368f:	4c 8b 6b 28          	mov    0x28(%rbx),%r13
    3693:	4c 8b 5b 30          	mov    0x30(%rbx),%r11
    3697:	89 cd                	mov    %ecx,%ebp
    3699:	0f af ea             	imul   %edx,%ebp
    369c:	48 8b bb 78 01 00 00 	mov    0x178(%rbx),%rdi
    36a3:	45 89 c1             	mov    %r8d,%r9d
    36a6:	41 8b 44 39 10       	mov    0x10(%r9,%rdi,1),%eax
    36ab:	85 c0                	test   %eax,%eax
    36ad:	89 54 24 0c          	mov    %edx,0xc(%rsp)
    36b1:	0f 84 82 00 00 00    	je     3739 <aot_func#27+0xc9>
    36b7:	49 8d 49 14          	lea    0x14(%r9),%rcx
    36bb:	8b 34 0f             	mov    (%rdi,%rcx,1),%esi
    36be:	29 f0                	sub    %esi,%eax
    36c0:	39 e8                	cmp    %ebp,%eax
    36c2:	0f 83 cb 00 00 00    	jae    3793 <aot_func#27+0x123>
    36c8:	49 63 54 39 20       	movslq 0x20(%r9,%rdi,1),%rdx
    36cd:	be 08 00 00 00       	mov    $0x8,%esi
    36d2:	3b 93 e8 01 00 00    	cmp    0x1e8(%rbx),%edx
    36d8:	0f 83 e5 01 00 00    	jae    38c3 <aot_func#27+0x253>
    36de:	48 8b bc d3 f0 01 00 	mov    0x1f0(%rbx,%rdx,8),%rdi
    36e5:	00 
    36e6:	83 ff ff             	cmp    $0xffffffff,%edi
    36e9:	0f 84 cf 01 00 00    	je     38be <aot_func#27+0x24e>
    36ef:	48 63 c7             	movslq %edi,%rax
    36f2:	be 06 00 00 00       	mov    $0x6,%esi
    36f7:	41 83 3c 83 00       	cmpl   $0x0,(%r11,%rax,4)
    36fc:	0f 85 c1 01 00 00    	jne    38c3 <aot_func#27+0x253>
    3702:	83 ff 06             	cmp    $0x6,%edi
    3705:	0f 87 d5 01 00 00    	ja     38e0 <aot_func#27+0x270>
    370b:	c4 c1 79 6e c0       	vmovd  %r8d,%xmm0
    3710:	c4 c3 79 22 c2 01    	vpinsrd $0x1,%r10d,%xmm0,%xmm0
    3716:	41 89 6e 08          	mov    %ebp,0x8(%r14)
    371a:	c4 c1 79 d6 06       	vmovq  %xmm0,(%r14)
    371f:	4c 89 e7             	mov    %r12,%rdi
    3722:	31 f6                	xor    %esi,%esi
    3724:	b9 03 00 00 00       	mov    $0x3,%ecx
    3729:	4d 89 f0             	mov    %r14,%r8
    372c:	e8 00 00 00 00       	call   3731 <aot_func#27+0xc1>
    3731:	41 8b 06             	mov    (%r14),%eax
    3734:	e9 e7 00 00 00       	jmp    3820 <aot_func#27+0x1b0>
    3739:	42 8b 04 0f          	mov    (%rdi,%r9,1),%eax
    373d:	42 8b 74 0f 3c       	mov    0x3c(%rdi,%r9,1),%esi
    3742:	8d 4e ff             	lea    -0x1(%rsi),%ecx
    3745:	09 f1                	or     %esi,%ecx
    3747:	42 89 4c 0f 3c       	mov    %ecx,0x3c(%rdi,%r9,1)
    374c:	a8 08                	test   $0x8,%al
    374e:	0f 85 91 00 00 00    	jne    37e5 <aot_func#27+0x175>
    3754:	4a c7 44 0f 04 00 00 	movq   $0x0,0x4(%rdi,%r9,1)
    375b:	00 00 
    375d:	42 8b 44 0f 28       	mov    0x28(%rdi,%r9,1),%eax
    3762:	42 89 44 0f 18       	mov    %eax,0x18(%rdi,%r9,1)
    3767:	49 8d 49 14          	lea    0x14(%r9),%rcx
    376b:	42 89 44 0f 14       	mov    %eax,0x14(%rdi,%r9,1)
    3770:	42 03 44 0f 2c       	add    0x2c(%rdi,%r9,1),%eax
    3775:	42 89 44 0f 10       	mov    %eax,0x10(%rdi,%r9,1)
    377a:	48 8b bb 78 01 00 00 	mov    0x178(%rbx),%rdi
    3781:	42 8b 44 0f 10       	mov    0x10(%rdi,%r9,1),%eax
    3786:	8b 34 0f             	mov    (%rdi,%rcx,1),%esi
    3789:	29 f0                	sub    %esi,%eax
    378b:	39 e8                	cmp    %ebp,%eax
    378d:	0f 82 35 ff ff ff    	jb     36c8 <aot_func#27+0x58>
    3793:	85 ed                	test   %ebp,%ebp
    3795:	48 89 4c 24 18       	mov    %rcx,0x18(%rsp)
    379a:	74 54                	je     37f0 <aot_func#27+0x180>
    379c:	41 83 7c 39 40 00    	cmpl   $0x0,0x40(%r9,%rdi,1)
    37a2:	78 34                	js     37d8 <aot_func#27+0x168>
    37a4:	4c 89 6c 24 20       	mov    %r13,0x20(%rsp)
    37a9:	4c 89 74 24 10       	mov    %r14,0x10(%rsp)
    37ae:	45 8d 34 2a          	lea    (%r10,%rbp,1),%r14d
    37b2:	45 31 ed             	xor    %r13d,%r13d
    37b5:	b8 ff ff ff ff       	mov    $0xffffffff,%eax
    37ba:	66 0f 1f 44 00 00    	nopw   0x0(%rax,%rax,1)
    37c0:	41 8d 0c 06          	lea    (%r14,%rax,1),%ecx
    37c4:	80 3c 0f 0a          	cmpb   $0xa,(%rdi,%rcx,1)
    37c8:	0f 84 80 00 00 00    	je     384e <aot_func#27+0x1de>
    37ce:	41 ff c5             	inc    %r13d
    37d1:	ff c8                	dec    %eax
    37d3:	44 39 ed             	cmp    %r13d,%ebp
    37d6:	75 e8                	jne    37c0 <aot_func#27+0x150>
    37d8:	c7 44 24 08 00 00 00 	movl   $0x0,0x8(%rsp)
    37df:	00 
    37e0:	41 89 ed             	mov    %ebp,%r13d
    37e3:	eb 16                	jmp    37fb <aot_func#27+0x18b>
    37e5:	83 c8 20             	or     $0x20,%eax
    37e8:	42 89 04 0f          	mov    %eax,(%rdi,%r9,1)
    37ec:	31 c0                	xor    %eax,%eax
    37ee:	eb 30                	jmp    3820 <aot_func#27+0x1b0>
    37f0:	c7 44 24 08 00 00 00 	movl   $0x0,0x8(%rsp)
    37f7:	00 
    37f8:	45 31 ed             	xor    %r13d,%r13d
    37fb:	4c 89 e7             	mov    %r12,%rdi
    37fe:	44 89 d2             	mov    %r10d,%edx
    3801:	44 89 e9             	mov    %r13d,%ecx
    3804:	e8 00 00 00 00       	call   3809 <aot_func#27+0x199>
    3809:	48 8b 83 78 01 00 00 	mov    0x178(%rbx),%rax
    3810:	48 8b 4c 24 18       	mov    0x18(%rsp),%rcx
    3815:	44 01 2c 08          	add    %r13d,(%rax,%rcx,1)
    3819:	8b 44 24 08          	mov    0x8(%rsp),%eax
    381d:	44 01 e8             	add    %r13d,%eax
    3820:	39 e8                	cmp    %ebp,%eax
    3822:	75 0f                	jne    3833 <aot_func#27+0x1c3>
    3824:	8b 44 24 0c          	mov    0xc(%rsp),%eax
    3828:	85 c0                	test   %eax,%eax
    382a:	44 0f 44 f8          	cmove  %eax,%r15d
    382e:	e9 9b 00 00 00       	jmp    38ce <aot_func#27+0x25e>
    3833:	8b 4c 24 0c          	mov    0xc(%rsp),%ecx
    3837:	85 c9                	test   %ecx,%ecx
    3839:	74 0c                	je     3847 <aot_func#27+0x1d7>
    383b:	31 d2                	xor    %edx,%edx
    383d:	f7 f1                	div    %ecx
    383f:	41 89 c7             	mov    %eax,%r15d
    3842:	e9 87 00 00 00       	jmp    38ce <aot_func#27+0x25e>
    3847:	be 04 00 00 00       	mov    $0x4,%esi
    384c:	eb 75                	jmp    38c3 <aot_func#27+0x253>
    384e:	49 63 54 39 20       	movslq 0x20(%r9,%rdi,1),%rdx
    3853:	be 08 00 00 00       	mov    $0x8,%esi
    3858:	3b 93 e8 01 00 00    	cmp    0x1e8(%rbx),%edx
    385e:	73 63                	jae    38c3 <aot_func#27+0x253>
    3860:	48 8b 84 d3 f0 01 00 	mov    0x1f0(%rbx,%rdx,8),%rax
    3867:	00 
    3868:	83 f8 ff             	cmp    $0xffffffff,%eax
    386b:	74 51                	je     38be <aot_func#27+0x24e>
    386d:	4c 63 c8             	movslq %eax,%r9
    3870:	be 06 00 00 00       	mov    $0x6,%esi
    3875:	43 83 3c 8b 00       	cmpl   $0x0,(%r11,%r9,4)
    387a:	75 47                	jne    38c3 <aot_func#27+0x253>
    387c:	89 e9                	mov    %ebp,%ecx
    387e:	44 29 e9             	sub    %r13d,%ecx
    3881:	83 f8 06             	cmp    $0x6,%eax
    3884:	89 c8                	mov    %ecx,%eax
    3886:	89 4c 24 08          	mov    %ecx,0x8(%rsp)
    388a:	77 69                	ja     38f5 <aot_func#27+0x285>
    388c:	c4 c1 79 6e c0       	vmovd  %r8d,%xmm0
    3891:	c4 c3 79 22 c2 01    	vpinsrd $0x1,%r10d,%xmm0,%xmm0
    3897:	48 8b 4c 24 10       	mov    0x10(%rsp),%rcx
    389c:	89 41 08             	mov    %eax,0x8(%rcx)
    389f:	c5 f9 d6 01          	vmovq  %xmm0,(%rcx)
    38a3:	49 89 c8             	mov    %rcx,%r8
    38a6:	4c 89 e7             	mov    %r12,%rdi
    38a9:	31 f6                	xor    %esi,%esi
    38ab:	b9 03 00 00 00       	mov    $0x3,%ecx
    38b0:	e8 00 00 00 00       	call   38b5 <aot_func#27+0x245>
    38b5:	48 8b 44 24 10       	mov    0x10(%rsp),%rax
    38ba:	8b 00                	mov    (%rax),%eax
    38bc:	eb 4b                	jmp    3909 <aot_func#27+0x299>
    38be:	be 09 00 00 00       	mov    $0x9,%esi
    38c3:	48 89 df             	mov    %rbx,%rdi
    38c6:	e8 00 00 00 00       	call   38cb <aot_func#27+0x25b>
    38cb:	45 31 ff             	xor    %r15d,%r15d
    38ce:	44 89 f8             	mov    %r15d,%eax
    38d1:	48 83 c4 28          	add    $0x28,%rsp
    38d5:	5b                   	pop    %rbx
    38d6:	41 5c                	pop    %r12
    38d8:	41 5d                	pop    %r13
    38da:	41 5e                	pop    %r14
    38dc:	41 5f                	pop    %r15
    38de:	5d                   	pop    %rbp
    38df:	c3                   	ret
    38e0:	4c 89 e7             	mov    %r12,%rdi
    38e3:	44 89 c6             	mov    %r8d,%esi
    38e6:	44 89 d2             	mov    %r10d,%edx
    38e9:	89 e9                	mov    %ebp,%ecx
    38eb:	41 ff 54 c5 00       	call   *0x0(%r13,%rax,8)
    38f0:	e9 2b ff ff ff       	jmp    3820 <aot_func#27+0x1b0>
    38f5:	4c 89 e7             	mov    %r12,%rdi
    38f8:	44 89 c6             	mov    %r8d,%esi
    38fb:	44 89 d2             	mov    %r10d,%edx
    38fe:	89 c1                	mov    %eax,%ecx
    3900:	48 8b 44 24 20       	mov    0x20(%rsp),%rax
    3905:	42 ff 14 c8          	call   *(%rax,%r9,8)
    3909:	3b 44 24 08          	cmp    0x8(%rsp),%eax
    390d:	0f 82 0d ff ff ff    	jb     3820 <aot_func#27+0x1b0>
    3913:	45 29 ee             	sub    %r13d,%r14d
    3916:	48 8b 83 78 01 00 00 	mov    0x178(%rbx),%rax
    391d:	48 8b 4c 24 18       	mov    0x18(%rsp),%rcx
    3922:	8b 34 08             	mov    (%rax,%rcx,1),%esi
    3925:	45 89 f2             	mov    %r14d,%r10d
    3928:	e9 ce fe ff ff       	jmp    37fb <aot_func#27+0x18b>
    392d:	0f 1f 00             	nopl   (%rax)

0000000000003930 <aot_func#28>:
    3930:	53                   	push   %rbx
    3931:	41 89 d0             	mov    %edx,%r8d
    3934:	48 8b 47 10          	mov    0x10(%rdi),%rax
    3938:	48 8b 80 78 01 00 00 	mov    0x178(%rax),%rax
    393f:	89 f3                	mov    %esi,%ebx
    3941:	40 f6 c6 03          	test   $0x3,%sil
    3945:	74 49                	je     3990 <aot_func#28+0x60>
    3947:	89 f1                	mov    %esi,%ecx
    3949:	80 3c 08 00          	cmpb   $0x0,(%rax,%rcx,1)
    394d:	74 6d                	je     39bc <aot_func#28+0x8c>
    394f:	8d 5e 01             	lea    0x1(%rsi),%ebx
    3952:	f6 c3 03             	test   $0x3,%bl
    3955:	74 39                	je     3990 <aot_func#28+0x60>
    3957:	89 d9                	mov    %ebx,%ecx
    3959:	80 3c 08 00          	cmpb   $0x0,(%rax,%rcx,1)
    395d:	74 59                	je     39b8 <aot_func#28+0x88>
    395f:	8d 5e 02             	lea    0x2(%rsi),%ebx
    3962:	f6 c3 03             	test   $0x3,%bl
    3965:	74 29                	je     3990 <aot_func#28+0x60>
    3967:	89 d9                	mov    %ebx,%ecx
    3969:	80 3c 08 00          	cmpb   $0x0,(%rax,%rcx,1)
    396d:	74 49                	je     39b8 <aot_func#28+0x88>
    396f:	8d 5e 03             	lea    0x3(%rsi),%ebx
    3972:	f6 c3 03             	test   $0x3,%bl
    3975:	74 19                	je     3990 <aot_func#28+0x60>
    3977:	89 d9                	mov    %ebx,%ecx
    3979:	8d 56 04             	lea    0x4(%rsi),%edx
    397c:	80 3c 08 00          	cmpb   $0x0,(%rax,%rcx,1)
    3980:	0f 44 d3             	cmove  %ebx,%edx
    3983:	89 d3                	mov    %edx,%ebx
    3985:	eb 31                	jmp    39b8 <aot_func#28+0x88>
    3987:	66 0f 1f 84 00 00 00 	nopw   0x0(%rax,%rax,1)
    398e:	00 00 
    3990:	89 d9                	mov    %ebx,%ecx
    3992:	8b 0c 08             	mov    (%rax,%rcx,1),%ecx
    3995:	ba 00 01 01 01       	mov    $0x1010100,%edx
    399a:	29 ca                	sub    %ecx,%edx
    399c:	09 ca                	or     %ecx,%edx
    399e:	f7 d2                	not    %edx
    39a0:	83 c3 04             	add    $0x4,%ebx
    39a3:	f7 c2 80 80 80 80    	test   $0x80808080,%edx
    39a9:	74 e5                	je     3990 <aot_func#28+0x60>
    39ab:	83 c3 fb             	add    $0xfffffffb,%ebx
    39ae:	66 90                	xchg   %ax,%ax
    39b0:	ff c3                	inc    %ebx
    39b2:	80 3c 18 00          	cmpb   $0x0,(%rax,%rbx,1)
    39b6:	75 f8                	jne    39b0 <aot_func#28+0x80>
    39b8:	29 f3                	sub    %esi,%ebx
    39ba:	eb 02                	jmp    39be <aot_func#28+0x8e>
    39bc:	31 db                	xor    %ebx,%ebx
    39be:	ba 01 00 00 00       	mov    $0x1,%edx
    39c3:	89 d9                	mov    %ebx,%ecx
    39c5:	e8 00 00 00 00       	call   39ca <aot_func#28+0x9a>
    39ca:	31 c9                	xor    %ecx,%ecx
    39cc:	39 c3                	cmp    %eax,%ebx
    39ce:	0f 95 c1             	setne  %cl
    39d1:	f7 d9                	neg    %ecx
    39d3:	89 c8                	mov    %ecx,%eax
    39d5:	5b                   	pop    %rbx
    39d6:	c3                   	ret
    39d7:	66 0f 1f 84 00 00 00 	nopw   0x0(%rax,%rax,1)
    39de:	00 00 

00000000000039e0 <aot_func#29>:
    39e0:	41 57                	push   %r15
    39e2:	41 56                	push   %r14
    39e4:	41 55                	push   %r13
    39e6:	41 54                	push   %r12
    39e8:	53                   	push   %rbx
    39e9:	4c 8b 6f 10          	mov    0x10(%rdi),%r13
    39ed:	4c 8b 77 18          	mov    0x18(%rdi),%r14
    39f1:	4d 8b 45 28          	mov    0x28(%r13),%r8
    39f5:	4d 8b 4d 30          	mov    0x30(%r13),%r9
    39f9:	45 8b bd d0 01 00 00 	mov    0x1d0(%r13),%r15d
    3a00:	45 8d 67 f0          	lea    -0x10(%r15),%r12d
    3a04:	45 89 a5 d0 01 00 00 	mov    %r12d,0x1d0(%r13)
    3a0b:	49 8b 85 78 01 00 00 	mov    0x178(%r13),%rax
    3a12:	41 88 54 04 0f       	mov    %dl,0xf(%r12,%rax,1)
    3a17:	49 8b 9d 78 01 00 00 	mov    0x178(%r13),%rbx
    3a1e:	89 f1                	mov    %esi,%ecx
    3a20:	8b 44 19 10          	mov    0x10(%rcx,%rbx,1),%eax
    3a24:	85 c0                	test   %eax,%eax
    3a26:	74 0f                	je     3a37 <aot_func#29+0x57>
    3a28:	4c 8d 51 14          	lea    0x14(%rcx),%r10
    3a2c:	46 8b 1c 13          	mov    (%rbx,%r10,1),%r11d
    3a30:	41 39 c3             	cmp    %eax,%r11d
    3a33:	75 60                	jne    3a95 <aot_func#29+0xb5>
    3a35:	eb 67                	jmp    3a9e <aot_func#29+0xbe>
    3a37:	48 8b 47 10          	mov    0x10(%rdi),%rax
    3a3b:	48 8b 80 78 01 00 00 	mov    0x178(%rax),%rax
    3a42:	44 8b 14 08          	mov    (%rax,%rcx,1),%r10d
    3a46:	44 8b 5c 08 3c       	mov    0x3c(%rax,%rcx,1),%r11d
    3a4b:	41 8d 5b ff          	lea    -0x1(%r11),%ebx
    3a4f:	44 09 db             	or     %r11d,%ebx
    3a52:	89 5c 08 3c          	mov    %ebx,0x3c(%rax,%rcx,1)
    3a56:	41 f6 c2 08          	test   $0x8,%r10b
    3a5a:	0f 85 ba 00 00 00    	jne    3b1a <aot_func#29+0x13a>
    3a60:	48 c7 44 08 04 00 00 	movq   $0x0,0x4(%rax,%rcx,1)
    3a67:	00 00 
    3a69:	8b 5c 08 28          	mov    0x28(%rax,%rcx,1),%ebx
    3a6d:	89 5c 08 18          	mov    %ebx,0x18(%rax,%rcx,1)
    3a71:	4c 8d 51 14          	lea    0x14(%rcx),%r10
    3a75:	89 5c 08 14          	mov    %ebx,0x14(%rax,%rcx,1)
    3a79:	03 5c 08 2c          	add    0x2c(%rax,%rcx,1),%ebx
    3a7d:	89 5c 08 10          	mov    %ebx,0x10(%rax,%rcx,1)
    3a81:	49 8b 9d 78 01 00 00 	mov    0x178(%r13),%rbx
    3a88:	8b 44 0b 10          	mov    0x10(%rbx,%rcx,1),%eax
    3a8c:	46 8b 1c 13          	mov    (%rbx,%r10,1),%r11d
    3a90:	41 39 c3             	cmp    %eax,%r11d
    3a93:	74 09                	je     3a9e <aot_func#29+0xbe>
    3a95:	0f b6 c2             	movzbl %dl,%eax
    3a98:	39 44 19 40          	cmp    %eax,0x40(%rcx,%rbx,1)
    3a9c:	75 67                	jne    3b05 <aot_func#29+0x125>
    3a9e:	48 63 54 19 20       	movslq 0x20(%rcx,%rbx,1),%rdx
    3aa3:	b8 08 00 00 00       	mov    $0x8,%eax
    3aa8:	41 3b 95 e8 01 00 00 	cmp    0x1e8(%r13),%edx
    3aaf:	0f 83 80 00 00 00    	jae    3b35 <aot_func#29+0x155>
    3ab5:	49 8b 8c d5 f0 01 00 	mov    0x1f0(%r13,%rdx,8),%rcx
    3abc:	00 
    3abd:	83 f9 ff             	cmp    $0xffffffff,%ecx
    3ac0:	74 6e                	je     3b30 <aot_func#29+0x150>
    3ac2:	48 63 d9             	movslq %ecx,%rbx
    3ac5:	b8 06 00 00 00       	mov    $0x6,%eax
    3aca:	41 83 3c 99 00       	cmpl   $0x0,(%r9,%rbx,4)
    3acf:	75 64                	jne    3b35 <aot_func#29+0x155>
    3ad1:	41 8d 47 ff          	lea    -0x1(%r15),%eax
    3ad5:	83 f9 06             	cmp    $0x6,%ecx
    3ad8:	77 71                	ja     3b4b <aot_func#29+0x16b>
    3ada:	c5 f9 6e c6          	vmovd  %esi,%xmm0
    3ade:	c4 e3 79 22 c0 01    	vpinsrd $0x1,%eax,%xmm0,%xmm0
    3ae4:	c4 c1 79 d6 06       	vmovq  %xmm0,(%r14)
    3ae9:	41 c7 46 08 01 00 00 	movl   $0x1,0x8(%r14)
    3af0:	00 
    3af1:	31 f6                	xor    %esi,%esi
    3af3:	b9 03 00 00 00       	mov    $0x3,%ecx
    3af8:	4d 89 f0             	mov    %r14,%r8
    3afb:	e8 00 00 00 00       	call   3b00 <aot_func#29+0x120>
    3b00:	41 8b 0e             	mov    (%r14),%ecx
    3b03:	eb 53                	jmp    3b58 <aot_func#29+0x178>
    3b05:	41 8d 4b 01          	lea    0x1(%r11),%ecx
    3b09:	42 89 0c 13          	mov    %ecx,(%rbx,%r10,1)
    3b0d:	49 8b 8d 78 01 00 00 	mov    0x178(%r13),%rcx
    3b14:	42 88 14 19          	mov    %dl,(%rcx,%r11,1)
    3b18:	eb 0d                	jmp    3b27 <aot_func#29+0x147>
    3b1a:	41 83 ca 20          	or     $0x20,%r10d
    3b1e:	44 89 14 08          	mov    %r10d,(%rax,%rcx,1)
    3b22:	b8 ff ff ff ff       	mov    $0xffffffff,%eax
    3b27:	45 89 bd d0 01 00 00 	mov    %r15d,0x1d0(%r13)
    3b2e:	eb 11                	jmp    3b41 <aot_func#29+0x161>
    3b30:	b8 09 00 00 00       	mov    $0x9,%eax
    3b35:	4c 89 ef             	mov    %r13,%rdi
    3b38:	89 c6                	mov    %eax,%esi
    3b3a:	e8 00 00 00 00       	call   3b3f <aot_func#29+0x15f>
    3b3f:	31 c0                	xor    %eax,%eax
    3b41:	5b                   	pop    %rbx
    3b42:	41 5c                	pop    %r12
    3b44:	41 5d                	pop    %r13
    3b46:	41 5e                	pop    %r14
    3b48:	41 5f                	pop    %r15
    3b4a:	c3                   	ret
    3b4b:	89 c2                	mov    %eax,%edx
    3b4d:	b9 01 00 00 00       	mov    $0x1,%ecx
    3b52:	41 ff 14 d8          	call   *(%r8,%rbx,8)
    3b56:	89 c1                	mov    %eax,%ecx
    3b58:	b8 ff ff ff ff       	mov    $0xffffffff,%eax
    3b5d:	83 f9 01             	cmp    $0x1,%ecx
    3b60:	75 c5                	jne    3b27 <aot_func#29+0x147>
    3b62:	49 8b 85 78 01 00 00 	mov    0x178(%r13),%rax
    3b69:	42 0f b6 44 20 0f    	movzbl 0xf(%rax,%r12,1),%eax
    3b6f:	eb b6                	jmp    3b27 <aot_func#29+0x147>
    3b71:	66 66 66 66 66 66 2e 	data16 data16 data16 data16 data16 cs nopw 0x0(%rax,%rax,1)
    3b78:	0f 1f 84 00 00 00 00 
    3b7f:	00 

0000000000003b80 <aot_func#30>:
    3b80:	41 56                	push   %r14
    3b82:	53                   	push   %rbx
    3b83:	50                   	push   %rax
    3b84:	48 89 fb             	mov    %rdi,%rbx
    3b87:	4c 8b 77 10          	mov    0x10(%rdi),%r14
    3b8b:	ba 90 0d 00 00       	mov    $0xd90,%edx
    3b90:	e8 00 00 00 00       	call   3b95 <aot_func#30+0x15>
    3b95:	85 c0                	test   %eax,%eax
    3b97:	78 3b                	js     3bd4 <aot_func#30+0x54>
    3b99:	49 8b 86 78 01 00 00 	mov    0x178(%r14),%rax
    3ba0:	83 b8 d0 0d 00 00 0a 	cmpl   $0xa,0xdd0(%rax)
    3ba7:	74 0e                	je     3bb7 <aot_func#30+0x37>
    3ba9:	8b 88 a4 0d 00 00    	mov    0xda4(%rax),%ecx
    3baf:	3b 88 a0 0d 00 00    	cmp    0xda0(%rax),%ecx
    3bb5:	75 2a                	jne    3be1 <aot_func#30+0x61>
    3bb7:	48 89 df             	mov    %rbx,%rdi
    3bba:	be 90 0d 00 00       	mov    $0xd90,%esi
    3bbf:	ba 0a 00 00 00       	mov    $0xa,%edx
    3bc4:	e8 00 00 00 00       	call   3bc9 <aot_func#30+0x49>
    3bc9:	c1 f8 1f             	sar    $0x1f,%eax
    3bcc:	48 83 c4 08          	add    $0x8,%rsp
    3bd0:	5b                   	pop    %rbx
    3bd1:	41 5e                	pop    %r14
    3bd3:	c3                   	ret
    3bd4:	b8 ff ff ff ff       	mov    $0xffffffff,%eax
    3bd9:	48 83 c4 08          	add    $0x8,%rsp
    3bdd:	5b                   	pop    %rbx
    3bde:	41 5e                	pop    %r14
    3be0:	c3                   	ret
    3be1:	8d 51 01             	lea    0x1(%rcx),%edx
    3be4:	89 90 a4 0d 00 00    	mov    %edx,0xda4(%rax)
    3bea:	49 8b 86 78 01 00 00 	mov    0x178(%r14),%rax
    3bf1:	c6 04 08 0a          	movb   $0xa,(%rax,%rcx,1)
    3bf5:	31 c0                	xor    %eax,%eax
    3bf7:	48 83 c4 08          	add    $0x8,%rsp
    3bfb:	5b                   	pop    %rbx
    3bfc:	41 5e                	pop    %r14
    3bfe:	c3                   	ret
    3bff:	90                   	nop

0000000000003c00 <aot_func#31>:
    3c00:	c3                   	ret
    3c01:	66 66 66 66 66 66 2e 	data16 data16 data16 data16 data16 cs nopw 0x0(%rax,%rax,1)
    3c08:	0f 1f 84 00 00 00 00 
    3c0f:	00 

0000000000003c10 <aot_func#32>:
    3c10:	53                   	push   %rbx
    3c11:	48 8b 5f 10          	mov    0x10(%rdi),%rbx
    3c15:	48 8b 43 28          	mov    0x28(%rbx),%rax
    3c19:	ff 50 10             	call   *0x10(%rax)
    3c1c:	80 7b 68 00          	cmpb   $0x0,0x68(%rbx)
    3c20:	74 11                	je     3c33 <aot_func#32+0x23>
    3c22:	48 89 df             	mov    %rbx,%rdi
    3c25:	be 21 00 00 00       	mov    $0x21,%esi
    3c2a:	e8 00 00 00 00       	call   3c2f <aot_func#32+0x1f>
    3c2f:	31 c0                	xor    %eax,%eax
    3c31:	5b                   	pop    %rbx
    3c32:	c3                   	ret
    3c33:	25 ff ff 00 00       	and    $0xffff,%eax
    3c38:	74 f5                	je     3c2f <aot_func#32+0x1f>
    3c3a:	48 8b 8b 78 01 00 00 	mov    0x178(%rbx),%rcx
    3c41:	89 81 74 10 00 00    	mov    %eax,0x1074(%rcx)
    3c47:	b8 ff ff ff ff       	mov    $0xffffffff,%eax
    3c4c:	5b                   	pop    %rbx
    3c4d:	c3                   	ret
    3c4e:	66 90                	xchg   %ax,%ax

0000000000003c50 <aot_func#33>:
    3c50:	53                   	push   %rbx
    3c51:	48 8b 5f 10          	mov    0x10(%rdi),%rbx
    3c55:	48 8b 43 28          	mov    0x28(%rbx),%rax
    3c59:	48 8b 8b 78 01 00 00 	mov    0x178(%rbx),%rcx
    3c60:	89 f2                	mov    %esi,%edx
    3c62:	8b 74 0a 38          	mov    0x38(%rdx,%rcx,1),%esi
    3c66:	ff 50 10             	call   *0x10(%rax)
    3c69:	80 7b 68 00          	cmpb   $0x0,0x68(%rbx)
    3c6d:	74 11                	je     3c80 <aot_func#33+0x30>
    3c6f:	48 89 df             	mov    %rbx,%rdi
    3c72:	be 21 00 00 00       	mov    $0x21,%esi
    3c77:	e8 00 00 00 00       	call   3c7c <aot_func#33+0x2c>
    3c7c:	31 c0                	xor    %eax,%eax
    3c7e:	5b                   	pop    %rbx
    3c7f:	c3                   	ret
    3c80:	25 ff ff 00 00       	and    $0xffff,%eax
    3c85:	74 14                	je     3c9b <aot_func#33+0x4b>
    3c87:	48 8b 8b 78 01 00 00 	mov    0x178(%rbx),%rcx
    3c8e:	89 81 74 10 00 00    	mov    %eax,0x1074(%rcx)
    3c94:	b8 ff ff ff ff       	mov    $0xffffffff,%eax
    3c99:	5b                   	pop    %rbx
    3c9a:	c3                   	ret
    3c9b:	31 c0                	xor    %eax,%eax
    3c9d:	5b                   	pop    %rbx
    3c9e:	c3                   	ret
    3c9f:	90                   	nop

0000000000003ca0 <aot_func#34>:
    3ca0:	55                   	push   %rbp
    3ca1:	41 57                	push   %r15
    3ca3:	41 56                	push   %r14
    3ca5:	41 55                	push   %r13
    3ca7:	41 54                	push   %r12
    3ca9:	53                   	push   %rbx
    3caa:	48 83 ec 28          	sub    $0x28,%rsp
    3cae:	4c 8b 67 10          	mov    0x10(%rdi),%r12
    3cb2:	45 8b b4 24 d0 01 00 	mov    0x1d0(%r12),%r14d
    3cb9:	00 
    3cba:	41 8d 46 f0          	lea    -0x10(%r14),%eax
    3cbe:	41 89 84 24 d0 01 00 	mov    %eax,0x1d0(%r12)
    3cc5:	00 
    3cc6:	85 c9                	test   %ecx,%ecx
    3cc8:	0f 88 9b 00 00 00    	js     3d69 <aot_func#34+0xc9>
    3cce:	41 89 cf             	mov    %ecx,%r15d
    3cd1:	48 89 fd             	mov    %rdi,%rbp
    3cd4:	89 44 24 08          	mov    %eax,0x8(%rsp)
    3cd8:	41 8d 46 fc          	lea    -0x4(%r14),%eax
    3cdc:	48 89 44 24 18       	mov    %rax,0x18(%rsp)
    3ce1:	4c 8b 6f 10          	mov    0x10(%rdi),%r13
    3ce5:	48 8b 5f 18          	mov    0x18(%rdi),%rbx
    3ce9:	49 8b 45 28          	mov    0x28(%r13),%rax
    3ced:	48 89 44 24 20       	mov    %rax,0x20(%rsp)
    3cf2:	89 d2                	mov    %edx,%edx
    3cf4:	b9 01 00 00 00       	mov    $0x1,%ecx
    3cf9:	4c 89 ef             	mov    %r13,%rdi
    3cfc:	89 74 24 0c          	mov    %esi,0xc(%rsp)
    3d00:	31 f6                	xor    %esi,%esi
    3d02:	49 89 d8             	mov    %rbx,%r8
    3d05:	e8 00 00 00 00       	call   3d0a <aot_func#34+0x6a>
    3d0a:	48 8b 03             	mov    (%rbx),%rax
    3d0d:	48 89 44 24 10       	mov    %rax,0x10(%rsp)
    3d12:	b9 01 00 00 00       	mov    $0x1,%ecx
    3d17:	4c 89 ef             	mov    %r13,%rdi
    3d1a:	31 f6                	xor    %esi,%esi
    3d1c:	48 8b 54 24 18       	mov    0x18(%rsp),%rdx
    3d21:	49 89 d8             	mov    %rbx,%r8
    3d24:	e8 00 00 00 00       	call   3d29 <aot_func#34+0x89>
    3d29:	4c 8b 03             	mov    (%rbx),%r8
    3d2c:	48 89 ef             	mov    %rbp,%rdi
    3d2f:	8b 74 24 0c          	mov    0xc(%rsp),%esi
    3d33:	48 8b 54 24 10       	mov    0x10(%rsp),%rdx
    3d38:	44 89 f9             	mov    %r15d,%ecx
    3d3b:	48 8b 44 24 20       	mov    0x20(%rsp),%rax
    3d40:	ff 50 28             	call   *0x28(%rax)
    3d43:	41 80 7d 68 00       	cmpb   $0x0,0x68(%r13)
    3d48:	74 33                	je     3d7d <aot_func#34+0xdd>
    3d4a:	4c 89 ef             	mov    %r13,%rdi
    3d4d:	be 21 00 00 00       	mov    $0x21,%esi
    3d52:	e8 00 00 00 00       	call   3d57 <aot_func#34+0xb7>
    3d57:	49 8b 84 24 78 01 00 	mov    0x178(%r12),%rax
    3d5e:	00 
    3d5f:	8b 4c 24 08          	mov    0x8(%rsp),%ecx
    3d63:	8b 44 01 0c          	mov    0xc(%rcx,%rax,1),%eax
    3d67:	eb 2e                	jmp    3d97 <aot_func#34+0xf7>
    3d69:	49 8b 84 24 78 01 00 	mov    0x178(%r12),%rax
    3d70:	00 
    3d71:	c7 80 74 10 00 00 1c 	movl   $0x1c,0x1074(%rax)
    3d78:	00 00 00 
    3d7b:	eb 15                	jmp    3d92 <aot_func#34+0xf2>
    3d7d:	25 ff ff 00 00       	and    $0xffff,%eax
    3d82:	74 d3                	je     3d57 <aot_func#34+0xb7>
    3d84:	49 8b 8c 24 78 01 00 	mov    0x178(%r12),%rcx
    3d8b:	00 
    3d8c:	89 81 74 10 00 00    	mov    %eax,0x1074(%rcx)
    3d92:	b8 ff ff ff ff       	mov    $0xffffffff,%eax
    3d97:	45 89 b4 24 d0 01 00 	mov    %r14d,0x1d0(%r12)
    3d9e:	00 
    3d9f:	48 83 c4 28          	add    $0x28,%rsp
    3da3:	5b                   	pop    %rbx
    3da4:	41 5c                	pop    %r12
    3da6:	41 5d                	pop    %r13
    3da8:	41 5e                	pop    %r14
    3daa:	41 5f                	pop    %r15
    3dac:	5d                   	pop    %rbp
    3dad:	c3                   	ret
    3dae:	66 90                	xchg   %ax,%ax

0000000000003db0 <aot_func#35>:
    3db0:	55                   	push   %rbp
    3db1:	41 57                	push   %r15
    3db3:	41 56                	push   %r14
    3db5:	41 55                	push   %r13
    3db7:	41 54                	push   %r12
    3db9:	53                   	push   %rbx
    3dba:	48 83 ec 48          	sub    $0x48,%rsp
    3dbe:	48 89 fd             	mov    %rdi,%rbp
    3dc1:	4c 8b 67 10          	mov    0x10(%rdi),%r12
    3dc5:	41 8b 84 24 d0 01 00 	mov    0x1d0(%r12),%eax
    3dcc:	00 
    3dcd:	48 89 44 24 40       	mov    %rax,0x40(%rsp)
    3dd2:	44 8d 68 f0          	lea    -0x10(%rax),%r13d
    3dd6:	45 89 ac 24 d0 01 00 	mov    %r13d,0x1d0(%r12)
    3ddd:	00 
    3dde:	49 8b 84 24 78 01 00 	mov    0x178(%r12),%rax
    3de5:	00 
    3de6:	89 4c 24 04          	mov    %ecx,0x4(%rsp)
    3dea:	41 89 4c 05 0c       	mov    %ecx,0xc(%r13,%rax,1)
    3def:	49 8b 84 24 78 01 00 	mov    0x178(%r12),%rax
    3df6:	00 
    3df7:	41 89 54 05 08       	mov    %edx,0x8(%r13,%rax,1)
    3dfc:	49 8b 84 24 78 01 00 	mov    0x178(%r12),%rax
    3e03:	00 
    3e04:	89 f2                	mov    %esi,%edx
    3e06:	8b 4c 02 18          	mov    0x18(%rdx,%rax,1),%ecx
    3e0a:	42 89 0c 28          	mov    %ecx,(%rax,%r13,1)
    3e0e:	49 8b 84 24 78 01 00 	mov    0x178(%r12),%rax
    3e15:	00 
    3e16:	44 8b 7c 02 14       	mov    0x14(%rdx,%rax,1),%r15d
    3e1b:	41 29 cf             	sub    %ecx,%r15d
    3e1e:	45 89 7c 05 04       	mov    %r15d,0x4(%r13,%rax,1)
    3e23:	49 8b 84 24 78 01 00 	mov    0x178(%r12),%rax
    3e2a:	00 
    3e2b:	48 89 54 24 08       	mov    %rdx,0x8(%rsp)
    3e30:	8b 44 02 38          	mov    0x38(%rdx,%rax,1),%eax
    3e34:	89 44 24 14          	mov    %eax,0x14(%rsp)
    3e38:	48 8b 47 10          	mov    0x10(%rdi),%rax
    3e3c:	8b 88 d0 01 00 00    	mov    0x1d0(%rax),%ecx
    3e42:	8d 51 f0             	lea    -0x10(%rcx),%edx
    3e45:	48 89 44 24 20       	mov    %rax,0x20(%rsp)
    3e4a:	89 54 24 10          	mov    %edx,0x10(%rsp)
    3e4e:	89 90 d0 01 00 00    	mov    %edx,0x1d0(%rax)
    3e54:	48 89 4c 24 18       	mov    %rcx,0x18(%rsp)
    3e59:	8d 41 fc             	lea    -0x4(%rcx),%eax
    3e5c:	48 89 44 24 30       	mov    %rax,0x30(%rsp)
    3e61:	48 8b 5f 10          	mov    0x10(%rdi),%rbx
    3e65:	4c 8b 77 18          	mov    0x18(%rdi),%r14
    3e69:	48 8b 43 28          	mov    0x28(%rbx),%rax
    3e6d:	48 89 44 24 38       	mov    %rax,0x38(%rsp)
    3e72:	b9 01 00 00 00       	mov    $0x1,%ecx
    3e77:	48 89 df             	mov    %rbx,%rdi
    3e7a:	31 f6                	xor    %esi,%esi
    3e7c:	4c 89 ea             	mov    %r13,%rdx
    3e7f:	4d 89 f0             	mov    %r14,%r8
    3e82:	e8 00 00 00 00       	call   3e87 <aot_func#35+0xd7>
    3e87:	49 8b 06             	mov    (%r14),%rax
    3e8a:	48 89 44 24 28       	mov    %rax,0x28(%rsp)
    3e8f:	b9 01 00 00 00       	mov    $0x1,%ecx
    3e94:	48 89 df             	mov    %rbx,%rdi
    3e97:	31 f6                	xor    %esi,%esi
    3e99:	48 8b 54 24 30       	mov    0x30(%rsp),%rdx
    3e9e:	4d 89 f0             	mov    %r14,%r8
    3ea1:	e8 00 00 00 00       	call   3ea6 <aot_func#35+0xf6>
    3ea6:	4d 8b 06             	mov    (%r14),%r8
    3ea9:	49 89 ee             	mov    %rbp,%r14
    3eac:	48 89 ef             	mov    %rbp,%rdi
    3eaf:	8b 74 24 14          	mov    0x14(%rsp),%esi
    3eb3:	48 8b 54 24 28       	mov    0x28(%rsp),%rdx
    3eb8:	b9 02 00 00 00       	mov    $0x2,%ecx
    3ebd:	48 8b 44 24 38       	mov    0x38(%rsp),%rax
    3ec2:	ff 50 28             	call   *0x28(%rax)
    3ec5:	80 7b 68 00          	cmpb   $0x0,0x68(%rbx)
    3ec9:	74 23                	je     3eee <aot_func#35+0x13e>
    3ecb:	48 89 df             	mov    %rbx,%rdi
    3ece:	be 21 00 00 00       	mov    $0x21,%esi
    3ed3:	e8 00 00 00 00       	call   3ed8 <aot_func#35+0x128>
    3ed8:	48 8b 54 24 20       	mov    0x20(%rsp),%rdx
    3edd:	48 8b 82 78 01 00 00 	mov    0x178(%rdx),%rax
    3ee4:	8b 4c 24 10          	mov    0x10(%rsp),%ecx
    3ee8:	8b 44 01 0c          	mov    0xc(%rcx,%rax,1),%eax
    3eec:	eb 1e                	jmp    3f0c <aot_func#35+0x15c>
    3eee:	25 ff ff 00 00       	and    $0xffff,%eax
    3ef3:	74 e3                	je     3ed8 <aot_func#35+0x128>
    3ef5:	48 8b 54 24 20       	mov    0x20(%rsp),%rdx
    3efa:	48 8b 8a 78 01 00 00 	mov    0x178(%rdx),%rcx
    3f01:	89 81 74 10 00 00    	mov    %eax,0x1074(%rcx)
    3f07:	b8 ff ff ff ff       	mov    $0xffffffff,%eax
    3f0c:	48 8b 4c 24 18       	mov    0x18(%rsp),%rcx
    3f11:	89 8a d0 01 00 00    	mov    %ecx,0x1d0(%rdx)
    3f17:	44 03 7c 24 04       	add    0x4(%rsp),%r15d
    3f1c:	44 39 f8             	cmp    %r15d,%eax
    3f1f:	74 7a                	je     3f9b <aot_func#35+0x1eb>
    3f21:	bb 02 00 00 00       	mov    $0x2,%ebx
    3f26:	66 2e 0f 1f 84 00 00 	cs nopw 0x0(%rax,%rax,1)
    3f2d:	00 00 00 
    3f30:	49 8b 8c 24 78 01 00 	mov    0x178(%r12),%rcx
    3f37:	00 
    3f38:	85 c0                	test   %eax,%eax
    3f3a:	0f 88 ac 00 00 00    	js     3fec <aot_func#35+0x23c>
    3f40:	44 89 ea             	mov    %r13d,%edx
    3f43:	8b 54 0a 04          	mov    0x4(%rdx,%rcx,1),%edx
    3f47:	31 ff                	xor    %edi,%edi
    3f49:	39 d0                	cmp    %edx,%eax
    3f4b:	40 0f 97 c7          	seta   %dil
    3f4f:	41 8d 6c fd 00       	lea    0x0(%r13,%rdi,8),%ebp
    3f54:	be 00 00 00 00       	mov    $0x0,%esi
    3f59:	0f 46 d6             	cmovbe %esi,%edx
    3f5c:	41 29 c7             	sub    %eax,%r15d
    3f5f:	29 d0                	sub    %edx,%eax
    3f61:	01 04 29             	add    %eax,(%rcx,%rbp,1)
    3f64:	41 8d 4c fd 04       	lea    0x4(%r13,%rdi,8),%ecx
    3f69:	49 8b 94 24 78 01 00 	mov    0x178(%r12),%rdx
    3f70:	00 
    3f71:	29 04 0a             	sub    %eax,(%rdx,%rcx,1)
    3f74:	49 8b 84 24 78 01 00 	mov    0x178(%r12),%rax
    3f7b:	00 
    3f7c:	48 8b 4c 24 08       	mov    0x8(%rsp),%rcx
    3f81:	8b 74 08 38          	mov    0x38(%rax,%rcx,1),%esi
    3f85:	29 fb                	sub    %edi,%ebx
    3f87:	4c 89 f7             	mov    %r14,%rdi
    3f8a:	89 ea                	mov    %ebp,%edx
    3f8c:	89 d9                	mov    %ebx,%ecx
    3f8e:	e8 00 00 00 00       	call   3f93 <aot_func#35+0x1e3>
    3f93:	41 89 ed             	mov    %ebp,%r13d
    3f96:	41 39 c7             	cmp    %eax,%r15d
    3f99:	75 95                	jne    3f30 <aot_func#35+0x180>
    3f9b:	49 8b 84 24 78 01 00 	mov    0x178(%r12),%rax
    3fa2:	00 
    3fa3:	48 8b 54 24 08       	mov    0x8(%rsp),%rdx
    3fa8:	8b 4c 10 28          	mov    0x28(%rax,%rdx,1),%ecx
    3fac:	89 4c 10 18          	mov    %ecx,0x18(%rax,%rdx,1)
    3fb0:	49 8b 84 24 78 01 00 	mov    0x178(%r12),%rax
    3fb7:	00 
    3fb8:	89 4c 10 14          	mov    %ecx,0x14(%rax,%rdx,1)
    3fbc:	49 8b 84 24 78 01 00 	mov    0x178(%r12),%rax
    3fc3:	00 
    3fc4:	03 4c 02 2c          	add    0x2c(%rdx,%rax,1),%ecx
    3fc8:	89 4c 02 10          	mov    %ecx,0x10(%rdx,%rax,1)
    3fcc:	8b 44 24 04          	mov    0x4(%rsp),%eax
    3fd0:	48 8b 4c 24 40       	mov    0x40(%rsp),%rcx
    3fd5:	41 89 8c 24 d0 01 00 	mov    %ecx,0x1d0(%r12)
    3fdc:	00 
    3fdd:	48 83 c4 48          	add    $0x48,%rsp
    3fe1:	5b                   	pop    %rbx
    3fe2:	41 5c                	pop    %r12
    3fe4:	41 5d                	pop    %r13
    3fe6:	41 5e                	pop    %r14
    3fe8:	41 5f                	pop    %r15
    3fea:	5d                   	pop    %rbp
    3feb:	c3                   	ret
    3fec:	48 8b 54 24 08       	mov    0x8(%rsp),%rdx
    3ff1:	c7 44 11 18 00 00 00 	movl   $0x0,0x18(%rcx,%rdx,1)
    3ff8:	00 
    3ff9:	49 8b 84 24 78 01 00 	mov    0x178(%r12),%rax
    4000:	00 
    4001:	48 c7 44 02 10 00 00 	movq   $0x0,0x10(%rdx,%rax,1)
    4008:	00 00 
    400a:	49 8b 84 24 78 01 00 	mov    0x178(%r12),%rax
    4011:	00 
    4012:	83 0c 10 20          	orl    $0x20,(%rax,%rdx,1)
    4016:	31 c0                	xor    %eax,%eax
    4018:	83 fb 02             	cmp    $0x2,%ebx
    401b:	74 b3                	je     3fd0 <aot_func#35+0x220>
    401d:	49 8b 84 24 78 01 00 	mov    0x178(%r12),%rax
    4024:	00 
    4025:	44 89 e9             	mov    %r13d,%ecx
    4028:	8b 54 24 04          	mov    0x4(%rsp),%edx
    402c:	2b 54 01 04          	sub    0x4(%rcx,%rax,1),%edx
    4030:	89 d0                	mov    %edx,%eax
    4032:	eb 9c                	jmp    3fd0 <aot_func#35+0x220>
    4034:	66 66 66 2e 0f 1f 84 	data16 data16 cs nopw 0x0(%rax,%rax,1)
    403b:	00 00 00 00 00 

0000000000004040 <aot_func#36>:
    4040:	55                   	push   %rbp
    4041:	41 57                	push   %r15
    4043:	41 56                	push   %r14
    4045:	41 55                	push   %r13
    4047:	41 54                	push   %r12
    4049:	53                   	push   %rbx
    404a:	48 83 ec 18          	sub    $0x18,%rsp
    404e:	89 74 24 0c          	mov    %esi,0xc(%rsp)
    4052:	48 89 fd             	mov    %rdi,%rbp
    4055:	4c 8b 67 10          	mov    0x10(%rdi),%r12
    4059:	41 8b 84 24 d0 01 00 	mov    0x1d0(%r12),%eax
    4060:	00 
    4061:	44 8d 68 e0          	lea    -0x20(%rax),%r13d
    4065:	45 89 ac 24 d0 01 00 	mov    %r13d,0x1d0(%r12)
    406c:	00 
    406d:	48 89 44 24 10       	mov    %rax,0x10(%rsp)
    4072:	8d 50 e8             	lea    -0x18(%rax),%edx
    4075:	48 8b 5f 10          	mov    0x10(%rdi),%rbx
    4079:	4c 8b 7f 18          	mov    0x18(%rdi),%r15
    407d:	4c 8b 73 28          	mov    0x28(%rbx),%r14
    4081:	b9 01 00 00 00       	mov    $0x1,%ecx
    4086:	48 89 df             	mov    %rbx,%rdi
    4089:	31 f6                	xor    %esi,%esi
    408b:	4d 89 f8             	mov    %r15,%r8
    408e:	e8 00 00 00 00       	call   4093 <aot_func#36+0x53>
    4093:	49 8b 17             	mov    (%r15),%rdx
    4096:	48 89 ef             	mov    %rbp,%rdi
    4099:	8b 74 24 0c          	mov    0xc(%rsp),%esi
    409d:	41 ff 56 18          	call   *0x18(%r14)
    40a1:	80 7b 68 00          	cmpb   $0x0,0x68(%rbx)
    40a5:	74 37                	je     40de <aot_func#36+0x9e>
    40a7:	48 89 df             	mov    %rbx,%rdi
    40aa:	be 21 00 00 00       	mov    $0x21,%esi
    40af:	e8 00 00 00 00       	call   40b4 <aot_func#36+0x74>
    40b4:	48 8b 74 24 10       	mov    0x10(%rsp),%rsi
    40b9:	49 8b 8c 24 78 01 00 	mov    0x178(%r12),%rcx
    40c0:	00 
    40c1:	44 89 ea             	mov    %r13d,%edx
    40c4:	b8 3b 00 00 00       	mov    $0x3b,%eax
    40c9:	80 7c 0a 08 02       	cmpb   $0x2,0x8(%rdx,%rcx,1)
    40ce:	75 22                	jne    40f2 <aot_func#36+0xb2>
    40d0:	f6 44 0a 10 24       	testb  $0x24,0x10(%rdx,%rcx,1)
    40d5:	75 1b                	jne    40f2 <aot_func#36+0xb2>
    40d7:	b8 01 00 00 00       	mov    $0x1,%eax
    40dc:	eb 1c                	jmp    40fa <aot_func#36+0xba>
    40de:	25 ff ff 00 00       	and    $0xffff,%eax
    40e3:	48 8b 74 24 10       	mov    0x10(%rsp),%rsi
    40e8:	74 cf                	je     40b9 <aot_func#36+0x79>
    40ea:	49 8b 8c 24 78 01 00 	mov    0x178(%r12),%rcx
    40f1:	00 
    40f2:	89 81 74 10 00 00    	mov    %eax,0x1074(%rcx)
    40f8:	31 c0                	xor    %eax,%eax
    40fa:	41 89 b4 24 d0 01 00 	mov    %esi,0x1d0(%r12)
    4101:	00 
    4102:	48 83 c4 18          	add    $0x18,%rsp
    4106:	5b                   	pop    %rbx
    4107:	41 5c                	pop    %r12
    4109:	41 5d                	pop    %r13
    410b:	41 5e                	pop    %r14
    410d:	41 5f                	pop    %r15
    410f:	5d                   	pop    %rbp
    4110:	c3                   	ret
    4111:	66 66 66 66 66 66 2e 	data16 data16 data16 data16 data16 cs nopw 0x0(%rax,%rax,1)
    4118:	0f 1f 84 00 00 00 00 
    411f:	00 

0000000000004120 <aot_func#37>:
    4120:	55                   	push   %rbp
    4121:	41 57                	push   %r15
    4123:	41 56                	push   %r14
    4125:	41 55                	push   %r13
    4127:	41 54                	push   %r12
    4129:	53                   	push   %rbx
    412a:	48 83 ec 28          	sub    $0x28,%rsp
    412e:	41 89 f4             	mov    %esi,%r12d
    4131:	48 89 fd             	mov    %rdi,%rbp
    4134:	4c 8b 7f 10          	mov    0x10(%rdi),%r15
    4138:	49 8b 87 78 01 00 00 	mov    0x178(%r15),%rax
    413f:	41 89 f5             	mov    %esi,%r13d
    4142:	41 c7 44 05 20 01 00 	movl   $0x1,0x20(%r13,%rax,1)
    4149:	00 00 
    414b:	49 8b 87 78 01 00 00 	mov    0x178(%r15),%rax
    4152:	42 f6 04 28 40       	testb  $0x40,(%rax,%r13,1)
    4157:	0f 85 f0 00 00 00    	jne    424d <aot_func#37+0x12d>
    415d:	89 14 24             	mov    %edx,(%rsp)
    4160:	89 4c 24 04          	mov    %ecx,0x4(%rsp)
    4164:	41 8b 44 05 38       	mov    0x38(%r13,%rax,1),%eax
    4169:	89 44 24 0c          	mov    %eax,0xc(%rsp)
    416d:	48 8b 45 10          	mov    0x10(%rbp),%rax
    4171:	8b 88 d0 01 00 00    	mov    0x1d0(%rax),%ecx
    4177:	8d 51 e0             	lea    -0x20(%rcx),%edx
    417a:	48 89 44 24 18       	mov    %rax,0x18(%rsp)
    417f:	89 54 24 08          	mov    %edx,0x8(%rsp)
    4183:	89 90 d0 01 00 00    	mov    %edx,0x1d0(%rax)
    4189:	48 89 4c 24 10       	mov    %rcx,0x10(%rsp)
    418e:	8d 51 e8             	lea    -0x18(%rcx),%edx
    4191:	48 8b 5d 10          	mov    0x10(%rbp),%rbx
    4195:	4c 8b 75 18          	mov    0x18(%rbp),%r14
    4199:	48 8b 43 28          	mov    0x28(%rbx),%rax
    419d:	48 89 44 24 20       	mov    %rax,0x20(%rsp)
    41a2:	b9 01 00 00 00       	mov    $0x1,%ecx
    41a7:	48 89 df             	mov    %rbx,%rdi
    41aa:	31 f6                	xor    %esi,%esi
    41ac:	4d 89 f0             	mov    %r14,%r8
    41af:	e8 00 00 00 00       	call   41b4 <aot_func#37+0x94>
    41b4:	49 8b 16             	mov    (%r14),%rdx
    41b7:	48 89 ef             	mov    %rbp,%rdi
    41ba:	8b 74 24 0c          	mov    0xc(%rsp),%esi
    41be:	48 8b 44 24 20       	mov    0x20(%rsp),%rax
    41c3:	ff 50 18             	call   *0x18(%rax)
    41c6:	80 7b 68 00          	cmpb   $0x0,0x68(%rbx)
    41ca:	74 45                	je     4211 <aot_func#37+0xf1>
    41cc:	48 89 df             	mov    %rbx,%rdi
    41cf:	be 21 00 00 00       	mov    $0x21,%esi
    41d4:	e8 00 00 00 00       	call   41d9 <aot_func#37+0xb9>
    41d9:	8b 4c 24 04          	mov    0x4(%rsp),%ecx
    41dd:	8b 14 24             	mov    (%rsp),%edx
    41e0:	48 8b 5c 24 18       	mov    0x18(%rsp),%rbx
    41e5:	4c 8b 44 24 10       	mov    0x10(%rsp),%r8
    41ea:	48 8b b3 78 01 00 00 	mov    0x178(%rbx),%rsi
    41f1:	8b 7c 24 08          	mov    0x8(%rsp),%edi
    41f5:	b8 3b 00 00 00       	mov    $0x3b,%eax
    41fa:	80 7c 37 08 02       	cmpb   $0x2,0x8(%rdi,%rsi,1)
    41ff:	75 2f                	jne    4230 <aot_func#37+0x110>
    4201:	f6 44 37 10 24       	testb  $0x24,0x10(%rdi,%rsi,1)
    4206:	75 28                	jne    4230 <aot_func#37+0x110>
    4208:	44 89 83 d0 01 00 00 	mov    %r8d,0x1d0(%rbx)
    420f:	eb 3c                	jmp    424d <aot_func#37+0x12d>
    4211:	25 ff ff 00 00       	and    $0xffff,%eax
    4216:	8b 4c 24 04          	mov    0x4(%rsp),%ecx
    421a:	8b 14 24             	mov    (%rsp),%edx
    421d:	48 8b 5c 24 18       	mov    0x18(%rsp),%rbx
    4222:	4c 8b 44 24 10       	mov    0x10(%rsp),%r8
    4227:	74 c1                	je     41ea <aot_func#37+0xca>
    4229:	48 8b b3 78 01 00 00 	mov    0x178(%rbx),%rsi
    4230:	89 86 74 10 00 00    	mov    %eax,0x1074(%rsi)
    4236:	44 89 83 d0 01 00 00 	mov    %r8d,0x1d0(%rbx)
    423d:	49 8b 87 78 01 00 00 	mov    0x178(%r15),%rax
    4244:	41 c7 44 05 40 ff ff 	movl   $0xffffffff,0x40(%r13,%rax,1)
    424b:	ff ff 
    424d:	48 89 ef             	mov    %rbp,%rdi
    4250:	44 89 e6             	mov    %r12d,%esi
    4253:	48 83 c4 28          	add    $0x28,%rsp
    4257:	5b                   	pop    %rbx
    4258:	41 5c                	pop    %r12
    425a:	41 5d                	pop    %r13
    425c:	41 5e                	pop    %r14
    425e:	41 5f                	pop    %r15
    4260:	5d                   	pop    %rbp
    4261:	e9 00 00 00 00       	jmp    4266 <aot_func#37+0x146>
    4266:	66 2e 0f 1f 84 00 00 	cs nopw 0x0(%rax,%rax,1)
    426d:	00 00 00 

0000000000004270 <aot_func#38>:
    4270:	55                   	push   %rbp
    4271:	41 57                	push   %r15
    4273:	41 56                	push   %r14
    4275:	41 55                	push   %r13
    4277:	41 54                	push   %r12
    4279:	53                   	push   %rbx
    427a:	48 83 ec 18          	sub    $0x18,%rsp
    427e:	48 89 54 24 10       	mov    %rdx,0x10(%rsp)
    4283:	89 74 24 0c          	mov    %esi,0xc(%rsp)
    4287:	48 89 fd             	mov    %rdi,%rbp
    428a:	4c 8b 77 10          	mov    0x10(%rdi),%r14
    428e:	45 8b be d0 01 00 00 	mov    0x1d0(%r14),%r15d
    4295:	41 8d 47 f0          	lea    -0x10(%r15),%eax
    4299:	89 44 24 04          	mov    %eax,0x4(%rsp)
    429d:	41 89 86 d0 01 00 00 	mov    %eax,0x1d0(%r14)
    42a4:	0f b6 c1             	movzbl %cl,%eax
    42a7:	89 44 24 08          	mov    %eax,0x8(%rsp)
    42ab:	41 8d 57 f8          	lea    -0x8(%r15),%edx
    42af:	48 8b 5f 10          	mov    0x10(%rdi),%rbx
    42b3:	4c 8b 6f 18          	mov    0x18(%rdi),%r13
    42b7:	4c 8b 63 28          	mov    0x28(%rbx),%r12
    42bb:	b9 01 00 00 00       	mov    $0x1,%ecx
    42c0:	48 89 df             	mov    %rbx,%rdi
    42c3:	31 f6                	xor    %esi,%esi
    42c5:	4d 89 e8             	mov    %r13,%r8
    42c8:	e8 00 00 00 00       	call   42cd <aot_func#38+0x5d>
    42cd:	4d 8b 45 00          	mov    0x0(%r13),%r8
    42d1:	48 89 ef             	mov    %rbp,%rdi
    42d4:	8b 74 24 0c          	mov    0xc(%rsp),%esi
    42d8:	48 8b 54 24 10       	mov    0x10(%rsp),%rdx
    42dd:	8b 4c 24 08          	mov    0x8(%rsp),%ecx
    42e1:	41 ff 54 24 20       	call   *0x20(%r12)
    42e6:	80 7b 68 00          	cmpb   $0x0,0x68(%rbx)
    42ea:	74 1f                	je     430b <aot_func#38+0x9b>
    42ec:	48 89 df             	mov    %rbx,%rdi
    42ef:	be 21 00 00 00       	mov    $0x21,%esi
    42f4:	e8 00 00 00 00       	call   42f9 <aot_func#38+0x89>
    42f9:	49 8b 86 78 01 00 00 	mov    0x178(%r14),%rax
    4300:	8b 4c 24 04          	mov    0x4(%rsp),%ecx
    4304:	48 8b 44 01 08       	mov    0x8(%rcx,%rax,1),%rax
    4309:	eb 26                	jmp    4331 <aot_func#38+0xc1>
    430b:	25 ff ff 00 00       	and    $0xffff,%eax
    4310:	74 e7                	je     42f9 <aot_func#38+0x89>
    4312:	83 f8 4c             	cmp    $0x4c,%eax
    4315:	b9 46 00 00 00       	mov    $0x46,%ecx
    431a:	0f 45 c8             	cmovne %eax,%ecx
    431d:	49 8b 86 78 01 00 00 	mov    0x178(%r14),%rax
    4324:	89 88 74 10 00 00    	mov    %ecx,0x1074(%rax)
    432a:	48 c7 c0 ff ff ff ff 	mov    $0xffffffffffffffff,%rax
    4331:	45 89 be d0 01 00 00 	mov    %r15d,0x1d0(%r14)
    4338:	48 83 c4 18          	add    $0x18,%rsp
    433c:	5b                   	pop    %rbx
    433d:	41 5c                	pop    %r12
    433f:	41 5d                	pop    %r13
    4341:	41 5e                	pop    %r14
    4343:	41 5f                	pop    %r15
    4345:	5d                   	pop    %rbp
    4346:	c3                   	ret
    4347:	66 0f 1f 84 00 00 00 	nopw   0x0(%rax,%rax,1)
    434e:	00 00 

0000000000004350 <aot_func#39>:
    4350:	55                   	push   %rbp
    4351:	41 57                	push   %r15
    4353:	41 56                	push   %r14
    4355:	41 55                	push   %r13
    4357:	41 54                	push   %r12
    4359:	53                   	push   %rbx
    435a:	48 83 ec 18          	sub    $0x18,%rsp
    435e:	48 89 54 24 10       	mov    %rdx,0x10(%rsp)
    4363:	48 89 fb             	mov    %rdi,%rbx
    4366:	4c 8b 77 10          	mov    0x10(%rdi),%r14
    436a:	49 8b 86 78 01 00 00 	mov    0x178(%r14),%rax
    4371:	89 f2                	mov    %esi,%edx
    4373:	8b 44 02 38          	mov    0x38(%rdx,%rax,1),%eax
    4377:	89 44 24 0c          	mov    %eax,0xc(%rsp)
    437b:	45 8b a6 d0 01 00 00 	mov    0x1d0(%r14),%r12d
    4382:	41 8d 44 24 f0       	lea    -0x10(%r12),%eax
    4387:	89 44 24 04          	mov    %eax,0x4(%rsp)
    438b:	41 89 86 d0 01 00 00 	mov    %eax,0x1d0(%r14)
    4392:	0f b6 c1             	movzbl %cl,%eax
    4395:	89 44 24 08          	mov    %eax,0x8(%rsp)
    4399:	41 8d 54 24 f8       	lea    -0x8(%r12),%edx
    439e:	4c 8b 7f 10          	mov    0x10(%rdi),%r15
    43a2:	48 8b 6f 18          	mov    0x18(%rdi),%rbp
    43a6:	4d 8b 6f 28          	mov    0x28(%r15),%r13
    43aa:	b9 01 00 00 00       	mov    $0x1,%ecx
    43af:	4c 89 ff             	mov    %r15,%rdi
    43b2:	31 f6                	xor    %esi,%esi
    43b4:	49 89 e8             	mov    %rbp,%r8
    43b7:	e8 00 00 00 00       	call   43bc <aot_func#39+0x6c>
    43bc:	4c 8b 45 00          	mov    0x0(%rbp),%r8
    43c0:	48 89 df             	mov    %rbx,%rdi
    43c3:	8b 74 24 0c          	mov    0xc(%rsp),%esi
    43c7:	48 8b 54 24 10       	mov    0x10(%rsp),%rdx
    43cc:	8b 4c 24 08          	mov    0x8(%rsp),%ecx
    43d0:	41 ff 55 20          	call   *0x20(%r13)
    43d4:	41 80 7f 68 00       	cmpb   $0x0,0x68(%r15)
    43d9:	74 1f                	je     43fa <aot_func#39+0xaa>
    43db:	4c 89 ff             	mov    %r15,%rdi
    43de:	be 21 00 00 00       	mov    $0x21,%esi
    43e3:	e8 00 00 00 00       	call   43e8 <aot_func#39+0x98>
    43e8:	49 8b 86 78 01 00 00 	mov    0x178(%r14),%rax
    43ef:	8b 4c 24 04          	mov    0x4(%rsp),%ecx
    43f3:	48 8b 44 01 08       	mov    0x8(%rcx,%rax,1),%rax
    43f8:	eb 26                	jmp    4420 <aot_func#39+0xd0>
    43fa:	25 ff ff 00 00       	and    $0xffff,%eax
    43ff:	74 e7                	je     43e8 <aot_func#39+0x98>
    4401:	83 f8 4c             	cmp    $0x4c,%eax
    4404:	b9 46 00 00 00       	mov    $0x46,%ecx
    4409:	0f 45 c8             	cmovne %eax,%ecx
    440c:	49 8b 86 78 01 00 00 	mov    0x178(%r14),%rax
    4413:	89 88 74 10 00 00    	mov    %ecx,0x1074(%rax)
    4419:	48 c7 c0 ff ff ff ff 	mov    $0xffffffffffffffff,%rax
    4420:	45 89 a6 d0 01 00 00 	mov    %r12d,0x1d0(%r14)
    4427:	48 83 c4 18          	add    $0x18,%rsp
    442b:	5b                   	pop    %rbx
    442c:	41 5c                	pop    %r12
    442e:	41 5d                	pop    %r13
    4430:	41 5e                	pop    %r14
    4432:	41 5f                	pop    %r15
    4434:	5d                   	pop    %rbp
    4435:	c3                   	ret
    4436:	66 2e 0f 1f 84 00 00 	cs nopw 0x0(%rax,%rax,1)
    443d:	00 00 00 

0000000000004440 <aot_func#40>:
    4440:	89 f0                	mov    %esi,%eax
    4442:	c3                   	ret
    4443:	66 66 66 66 2e 0f 1f 	data16 data16 data16 cs nopw 0x0(%rax,%rax,1)
    444a:	84 00 00 00 00 00 

0000000000004450 <aot_func#41>:
    4450:	89 f0                	mov    %esi,%eax
    4452:	c3                   	ret
    4453:	66 66 66 66 2e 0f 1f 	data16 data16 data16 cs nopw 0x0(%rax,%rax,1)
    445a:	84 00 00 00 00 00 

0000000000004460 <aot_func#42>:
    4460:	48 8b 4f 10          	mov    0x10(%rdi),%rcx
    4464:	48 8b 81 78 01 00 00 	mov    0x178(%rcx),%rax
    446b:	83 b8 a0 14 00 00 00 	cmpl   $0x0,0x14a0(%rax)
    4472:	75 11                	jne    4485 <aot_func#42+0x25>
    4474:	c7 80 a0 14 00 00 88 	movl   $0x1488,0x14a0(%rax)
    447b:	14 00 00 
    447e:	48 8b 81 78 01 00 00 	mov    0x178(%rcx),%rax
    4485:	83 fe 4d             	cmp    $0x4d,%esi
    4488:	8d 8c 36 10 0b 00 00 	lea    0xb10(%rsi,%rsi,1),%ecx
    448f:	ba 10 0b 00 00       	mov    $0xb10,%edx
    4494:	0f 42 d1             	cmovb  %ecx,%edx
    4497:	0f b7 04 10          	movzwl (%rax,%rdx,1),%eax
    449b:	05 f3 04 00 00       	add    $0x4f3,%eax
    44a0:	c3                   	ret
    44a1:	66 66 66 66 66 66 2e 	data16 data16 data16 data16 data16 cs nopw 0x0(%rax,%rax,1)
    44a8:	0f 1f 84 00 00 00 00 
    44af:	00 

00000000000044b0 <aot_func#43>:
    44b0:	b8 01 00 00 00       	mov    $0x1,%eax
    44b5:	85 f6                	test   %esi,%esi
    44b7:	0f 84 e4 00 00 00    	je     45a1 <aot_func#43+0xf1>
    44bd:	48 8b 4f 10          	mov    0x10(%rdi),%rcx
    44c1:	48 8b 89 78 01 00 00 	mov    0x178(%rcx),%rcx
    44c8:	83 fa 7f             	cmp    $0x7f,%edx
    44cb:	0f 86 cb 00 00 00    	jbe    459c <aot_func#43+0xec>
    44d1:	8b b9 a0 14 00 00    	mov    0x14a0(%rcx),%edi
    44d7:	85 ff                	test   %edi,%edi
    44d9:	0f 84 95 00 00 00    	je     4574 <aot_func#43+0xc4>
    44df:	89 ff                	mov    %edi,%edi
    44e1:	83 3c 39 00          	cmpl   $0x0,(%rcx,%rdi,1)
    44e5:	0f 84 a4 00 00 00    	je     458f <aot_func#43+0xdf>
    44eb:	81 fa ff 07 00 00    	cmp    $0x7ff,%edx
    44f1:	0f 86 ab 00 00 00    	jbe    45a2 <aot_func#43+0xf2>
    44f7:	81 fa 00 d8 00 00    	cmp    $0xd800,%edx
    44fd:	0f 82 ca 00 00 00    	jb     45cd <aot_func#43+0x11d>
    4503:	89 d0                	mov    %edx,%eax
    4505:	25 00 e0 ff ff       	and    $0xffffe000,%eax
    450a:	3d 00 e0 00 00       	cmp    $0xe000,%eax
    450f:	0f 84 b8 00 00 00    	je     45cd <aot_func#43+0x11d>
    4515:	8d 82 00 00 ef ff    	lea    -0x110000(%rdx),%eax
    451b:	3d 00 00 f0 ff       	cmp    $0xfff00000,%eax
    4520:	0f 82 97 00 00 00    	jb     45bd <aot_func#43+0x10d>
    4526:	41 89 d0             	mov    %edx,%r8d
    4529:	41 80 e0 3f          	and    $0x3f,%r8b
    452d:	89 d7                	mov    %edx,%edi
    452f:	c1 ef 12             	shr    $0x12,%edi
    4532:	89 d0                	mov    %edx,%eax
    4534:	c1 e8 06             	shr    $0x6,%eax
    4537:	24 3f                	and    $0x3f,%al
    4539:	c1 ea 0c             	shr    $0xc,%edx
    453c:	80 e2 3f             	and    $0x3f,%dl
    453f:	c5 f9 6e c7          	vmovd  %edi,%xmm0
    4543:	0f b6 d2             	movzbl %dl,%edx
    4546:	c4 e3 79 20 c2 01    	vpinsrb $0x1,%edx,%xmm0,%xmm0
    454c:	0f b6 c0             	movzbl %al,%eax
    454f:	c4 e3 79 20 c0 02    	vpinsrb $0x2,%eax,%xmm0,%xmm0
    4555:	41 0f b6 c0          	movzbl %r8b,%eax
    4559:	c4 e3 79 20 c0 03    	vpinsrb $0x3,%eax,%xmm0,%xmm0
    455f:	89 f0                	mov    %esi,%eax
    4561:	c5 f9 eb 05 00 00 00 	vpor   0x0(%rip),%xmm0,%xmm0        # 4569 <aot_func#43+0xb9>
    4568:	00 
    4569:	c5 f9 7e 04 01       	vmovd  %xmm0,(%rcx,%rax,1)
    456e:	b8 04 00 00 00       	mov    $0x4,%eax
    4573:	c3                   	ret
    4574:	c7 81 a0 14 00 00 88 	movl   $0x1488,0x14a0(%rcx)
    457b:	14 00 00 
    457e:	bf 88 14 00 00       	mov    $0x1488,%edi
    4583:	89 ff                	mov    %edi,%edi
    4585:	83 3c 39 00          	cmpl   $0x0,(%rcx,%rdi,1)
    4589:	0f 85 5c ff ff ff    	jne    44eb <aot_func#43+0x3b>
    458f:	89 d7                	mov    %edx,%edi
    4591:	83 e7 80             	and    $0xffffff80,%edi
    4594:	81 ff 80 df 00 00    	cmp    $0xdf80,%edi
    459a:	75 21                	jne    45bd <aot_func#43+0x10d>
    459c:	89 f6                	mov    %esi,%esi
    459e:	88 14 31             	mov    %dl,(%rcx,%rsi,1)
    45a1:	c3                   	ret
    45a2:	89 f6                	mov    %esi,%esi
    45a4:	89 d0                	mov    %edx,%eax
    45a6:	24 3f                	and    $0x3f,%al
    45a8:	0c 80                	or     $0x80,%al
    45aa:	88 44 31 01          	mov    %al,0x1(%rcx,%rsi,1)
    45ae:	c1 ea 06             	shr    $0x6,%edx
    45b1:	80 ca c0             	or     $0xc0,%dl
    45b4:	88 14 31             	mov    %dl,(%rcx,%rsi,1)
    45b7:	b8 02 00 00 00       	mov    $0x2,%eax
    45bc:	c3                   	ret
    45bd:	c7 81 74 10 00 00 19 	movl   $0x19,0x1074(%rcx)
    45c4:	00 00 00 
    45c7:	b8 ff ff ff ff       	mov    $0xffffffff,%eax
    45cc:	c3                   	ret
    45cd:	89 f6                	mov    %esi,%esi
    45cf:	89 d0                	mov    %edx,%eax
    45d1:	24 3f                	and    $0x3f,%al
    45d3:	0c 80                	or     $0x80,%al
    45d5:	88 44 31 02          	mov    %al,0x2(%rcx,%rsi,1)
    45d9:	89 d0                	mov    %edx,%eax
    45db:	c1 e8 0c             	shr    $0xc,%eax
    45de:	0c e0                	or     $0xe0,%al
    45e0:	88 04 31             	mov    %al,(%rcx,%rsi,1)
    45e3:	c1 ea 06             	shr    $0x6,%edx
    45e6:	80 e2 3f             	and    $0x3f,%dl
    45e9:	80 ca 80             	or     $0x80,%dl
    45ec:	88 54 31 01          	mov    %dl,0x1(%rcx,%rsi,1)
    45f0:	b8 03 00 00 00       	mov    $0x3,%eax
    45f5:	c3                   	ret
    45f6:	66 2e 0f 1f 84 00 00 	cs nopw 0x0(%rax,%rax,1)
    45fd:	00 00 00 

0000000000004600 <aot_func#44>:
    4600:	85 f6                	test   %esi,%esi
    4602:	74 05                	je     4609 <aot_func#44+0x9>
    4604:	e9 00 00 00 00       	jmp    4609 <aot_func#44+0x9>
    4609:	31 c0                	xor    %eax,%eax
    460b:	c3                   	ret
    460c:	0f 1f 40 00          	nopl   0x0(%rax)

0000000000004610 <aot_func#45>:
    4610:	41 56                	push   %r14
    4612:	53                   	push   %rbx
    4613:	50                   	push   %rax
    4614:	c4 e1 f9 7e c0       	vmovq  %xmm0,%rax
    4619:	48 89 c1             	mov    %rax,%rcx
    461c:	48 c1 e9 34          	shr    $0x34,%rcx
    4620:	81 e1 ff 07 00 00    	and    $0x7ff,%ecx
    4626:	81 f9 ff 07 00 00    	cmp    $0x7ff,%ecx
    462c:	74 32                	je     4660 <aot_func#45+0x50>
    462e:	89 f3                	mov    %esi,%ebx
    4630:	4c 8b 77 10          	mov    0x10(%rdi),%r14
    4634:	85 c9                	test   %ecx,%ecx
    4636:	75 30                	jne    4668 <aot_func#45+0x58>
    4638:	c5 f1 57 c9          	vxorpd %xmm1,%xmm1,%xmm1
    463c:	c5 f9 2e c1          	vucomisd %xmm1,%xmm0
    4640:	75 02                	jne    4644 <aot_func#45+0x34>
    4642:	7b 5d                	jnp    46a1 <aot_func#45+0x91>
